
Math_train.elf:     file format elf32-littlenios2
Math_train.elf
architecture: nios2:r1, flags 0x00000112:
EXEC_P, HAS_SYMS, D_PAGED
start address 0x08400224

Program Header:
    LOAD off    0x00001000 vaddr 0x08000000 paddr 0x08000000 align 2**12
         filesz 0x00000020 memsz 0x00000020 flags r-x
    LOAD off    0x00002000 vaddr 0x08400000 paddr 0x08400000 align 2**12
         filesz 0x000454b0 memsz 0x000454b0 flags r-x
    LOAD off    0x000474b0 vaddr 0x084454b0 paddr 0x08448b54 align 2**12
         filesz 0x000036a4 memsz 0x000036a4 flags rw-
    LOAD off    0x0004b1f8 vaddr 0x0844c1f8 paddr 0x0844c1f8 align 2**12
         filesz 0x00000000 memsz 0x0001eb64 flags rw-

Sections:
Idx Name          Size      VMA       LMA       File off  Algn
  0 .entry        00000020  08000000  08000000  00001000  2**5
                  CONTENTS, ALLOC, LOAD, READONLY, CODE
  1 .exceptions   00000224  08400000  08400000  00002000  2**2
                  CONTENTS, ALLOC, LOAD, READONLY, CODE
  2 .text         0001b96c  08400224  08400224  00002224  2**2
                  CONTENTS, ALLOC, LOAD, READONLY, CODE
  3 .rodata       00029920  0841bb90  0841bb90  0001db90  2**2
                  CONTENTS, ALLOC, LOAD, READONLY, DATA
  4 .rwdata       000036a4  084454b0  08448b54  000474b0  2**2
                  CONTENTS, ALLOC, LOAD, DATA, SMALL_DATA
  5 .bss          0001eb64  0844c1f8  0844c1f8  0004b1f8  2**2
                  ALLOC, SMALL_DATA
  6 .sdram        00000000  0846ad5c  0846ad5c  0004ab54  2**0
                  CONTENTS
  7 .comment      00000023  00000000  00000000  0004ab54  2**0
                  CONTENTS, READONLY
  8 .debug_aranges 00001360  00000000  00000000  0004ab78  2**3
                  CONTENTS, READONLY, DEBUGGING
  9 .debug_info   000337cb  00000000  00000000  0004bed8  2**0
                  CONTENTS, READONLY, DEBUGGING
 10 .debug_abbrev 0000c681  00000000  00000000  0007f6a3  2**0
                  CONTENTS, READONLY, DEBUGGING
 11 .debug_line   0001118f  00000000  00000000  0008bd24  2**0
                  CONTENTS, READONLY, DEBUGGING
 12 .debug_frame  000039e8  00000000  00000000  0009ceb4  2**2
                  CONTENTS, READONLY, DEBUGGING
 13 .debug_str    00005e11  00000000  00000000  000a089c  2**0
                  CONTENTS, READONLY, DEBUGGING
 14 .debug_loc    0001dcc1  00000000  00000000  000a66ad  2**0
                  CONTENTS, READONLY, DEBUGGING
 15 .debug_alt_sim_info 00000060  00000000  00000000  000c4370  2**2
                  CONTENTS, READONLY, DEBUGGING
 16 .debug_ranges 00001c18  00000000  00000000  000c43d0  2**3
                  CONTENTS, READONLY, DEBUGGING
 17 .thread_model 00000003  00000000  00000000  000cc061  2**0
                  CONTENTS, READONLY
 18 .cpu          00000004  00000000  00000000  000cc064  2**0
                  CONTENTS, READONLY
 19 .qsys         00000001  00000000  00000000  000cc068  2**0
                  CONTENTS, READONLY
 20 .simulation_enabled 00000001  00000000  00000000  000cc069  2**0
                  CONTENTS, READONLY
 21 .sysid_hash   00000004  00000000  00000000  000cc06a  2**0
                  CONTENTS, READONLY
 22 .sysid_base   00000004  00000000  00000000  000cc06e  2**0
                  CONTENTS, READONLY
 23 .sysid_time   00000004  00000000  00000000  000cc072  2**0
                  CONTENTS, READONLY
 24 .stderr_dev   0000000b  00000000  00000000  000cc076  2**0
                  CONTENTS, READONLY
 25 .stdin_dev    0000000b  00000000  00000000  000cc081  2**0
                  CONTENTS, READONLY
 26 .stdout_dev   0000000b  00000000  00000000  000cc08c  2**0
                  CONTENTS, READONLY
 27 .sopc_system_name 00000014  00000000  00000000  000cc097  2**0
                  CONTENTS, READONLY
 28 .quartus_project_dir 0000004e  00000000  00000000  000cc0ab  2**0
                  CONTENTS, READONLY
 29 .sopcinfo     000824f5  00000000  00000000  000cc0f9  2**0
                  CONTENTS, READONLY
SYMBOL TABLE:
08000000 l    d  .entry	00000000 .entry
08400000 l    d  .exceptions	00000000 .exceptions
08400224 l    d  .text	00000000 .text
0841bb90 l    d  .rodata	00000000 .rodata
084454b0 l    d  .rwdata	00000000 .rwdata
0844c1f8 l    d  .bss	00000000 .bss
0846ad5c l    d  .sdram	00000000 .sdram
00000000 l    d  .comment	00000000 .comment
00000000 l    d  .debug_aranges	00000000 .debug_aranges
00000000 l    d  .debug_info	00000000 .debug_info
00000000 l    d  .debug_abbrev	00000000 .debug_abbrev
00000000 l    d  .debug_line	00000000 .debug_line
00000000 l    d  .debug_frame	00000000 .debug_frame
00000000 l    d  .debug_str	00000000 .debug_str
00000000 l    d  .debug_loc	00000000 .debug_loc
00000000 l    d  .debug_alt_sim_info	00000000 .debug_alt_sim_info
00000000 l    d  .debug_ranges	00000000 .debug_ranges
00000000 l    df *ABS*	00000000 C:/Users/emilio/UNI/Magistrale/Embedded/progetto/DE10_Lite_First_Computer/Software/Math_train_bsp//obj/HAL/src/crt0.o
0840026c l       .text	00000000 alt_after_alt_main
00000000 l    df *ABS*	00000000 alt_irq_handler.c
00000000 l    df *ABS*	00000000 alt_instruction_exception_entry.c
00000000 l    df *ABS*	00000000 tahomabold_20.c
0841bb90 l     O .rodata	000000b6 tahomabold_20_33
0841bc46 l     O .rodata	00000104 tahomabold_20_34
0841bd4a l     O .rodata	000001a0 tahomabold_20_35
0841beea l     O .rodata	00000152 tahomabold_20_36
0841c03c l     O .rodata	00000270 tahomabold_20_37
0841c2ac l     O .rodata	000001ba tahomabold_20_38
0841c466 l     O .rodata	0000009c tahomabold_20_39
0841c502 l     O .rodata	000000ea tahomabold_20_40
0841c5ec l     O .rodata	000000ea tahomabold_20_41
0841c6d6 l     O .rodata	00000152 tahomabold_20_42
0841c828 l     O .rodata	000001a0 tahomabold_20_43
0841c9c8 l     O .rodata	0000009c tahomabold_20_44
0841ca64 l     O .rodata	000000ea tahomabold_20_45
0841cb4e l     O .rodata	0000009c tahomabold_20_46
0841cbea l     O .rodata	00000138 tahomabold_20_47
0841cd22 l     O .rodata	00000152 tahomabold_20_48
0841ce74 l     O .rodata	00000152 tahomabold_20_49
0841cfc6 l     O .rodata	00000152 tahomabold_20_50
0841d118 l     O .rodata	00000152 tahomabold_20_51
0841d26a l     O .rodata	00000152 tahomabold_20_52
0841d3bc l     O .rodata	00000152 tahomabold_20_53
0841d50e l     O .rodata	00000152 tahomabold_20_54
0841d660 l     O .rodata	00000152 tahomabold_20_55
0841d7b2 l     O .rodata	00000152 tahomabold_20_56
0841d904 l     O .rodata	00000152 tahomabold_20_57
0841da56 l     O .rodata	000000b6 tahomabold_20_58
0841db0c l     O .rodata	000000b6 tahomabold_20_59
0841dbc2 l     O .rodata	000001a0 tahomabold_20_60
0841dd62 l     O .rodata	000001a0 tahomabold_20_61
0841df02 l     O .rodata	000001a0 tahomabold_20_62
0841e0a2 l     O .rodata	0000011e tahomabold_20_63
0841e1c0 l     O .rodata	000001d4 tahomabold_20_64
0841e394 l     O .rodata	0000016c tahomabold_20_65
0841e500 l     O .rodata	0000016c tahomabold_20_66
0841e66c l     O .rodata	00000152 tahomabold_20_67
0841e7be l     O .rodata	00000186 tahomabold_20_68
0841e944 l     O .rodata	00000138 tahomabold_20_69
0841ea7c l     O .rodata	00000138 tahomabold_20_70
0841ebb4 l     O .rodata	00000186 tahomabold_20_71
0841ed3a l     O .rodata	00000186 tahomabold_20_72
0841eec0 l     O .rodata	00000104 tahomabold_20_73
0841efc4 l     O .rodata	00000104 tahomabold_20_74
0841f0c8 l     O .rodata	0000016c tahomabold_20_75
0841f234 l     O .rodata	0000011e tahomabold_20_76
0841f352 l     O .rodata	000001d4 tahomabold_20_77
0841f526 l     O .rodata	00000186 tahomabold_20_78
0841f6ac l     O .rodata	00000186 tahomabold_20_79
0841f832 l     O .rodata	00000152 tahomabold_20_80
0841f984 l     O .rodata	00000186 tahomabold_20_81
0841fb0a l     O .rodata	00000186 tahomabold_20_82
0841fc90 l     O .rodata	00000152 tahomabold_20_83
0841fde2 l     O .rodata	00000138 tahomabold_20_84
0841ff1a l     O .rodata	00000186 tahomabold_20_85
084200a0 l     O .rodata	0000016c tahomabold_20_86
0842020c l     O .rodata	00000222 tahomabold_20_87
0842042e l     O .rodata	0000016c tahomabold_20_88
0842059a l     O .rodata	0000016c tahomabold_20_89
08420706 l     O .rodata	00000138 tahomabold_20_90
0842083e l     O .rodata	000000ea tahomabold_20_91
08420928 l     O .rodata	00000138 tahomabold_20_92
08420a60 l     O .rodata	000000ea tahomabold_20_93
08420b4a l     O .rodata	000001a0 tahomabold_20_94
08420cea l     O .rodata	00000152 tahomabold_20_95
08420e3c l     O .rodata	0000011e tahomabold_20_96
08420f5a l     O .rodata	00000138 tahomabold_20_97
08421092 l     O .rodata	00000152 tahomabold_20_98
084211e4 l     O .rodata	0000011e tahomabold_20_99
08421302 l     O .rodata	00000152 tahomabold_20_100
08421454 l     O .rodata	00000138 tahomabold_20_101
0842158c l     O .rodata	000000d0 tahomabold_20_102
0842165c l     O .rodata	00000152 tahomabold_20_103
084217ae l     O .rodata	00000152 tahomabold_20_104
08421900 l     O .rodata	0000009c tahomabold_20_105
0842199c l     O .rodata	000000ea tahomabold_20_106
08421a86 l     O .rodata	00000138 tahomabold_20_107
08421bbe l     O .rodata	0000009c tahomabold_20_108
08421c5a l     O .rodata	000001ee tahomabold_20_109
08421e48 l     O .rodata	00000152 tahomabold_20_110
08421f9a l     O .rodata	00000138 tahomabold_20_111
084220d2 l     O .rodata	00000152 tahomabold_20_112
08422224 l     O .rodata	00000152 tahomabold_20_113
08422376 l     O .rodata	000000ea tahomabold_20_114
08422460 l     O .rodata	00000104 tahomabold_20_115
08422564 l     O .rodata	000000d0 tahomabold_20_116
08422634 l     O .rodata	00000152 tahomabold_20_117
08422786 l     O .rodata	00000138 tahomabold_20_118
084228be l     O .rodata	000001d4 tahomabold_20_119
08422a92 l     O .rodata	00000138 tahomabold_20_120
08422bca l     O .rodata	00000138 tahomabold_20_121
08422d02 l     O .rodata	0000011e tahomabold_20_122
08422e20 l     O .rodata	00000138 tahomabold_20_123
08422f58 l     O .rodata	00000152 tahomabold_20_124
084230aa l     O .rodata	00000138 tahomabold_20_125
084231e2 l     O .rodata	000001a0 tahomabold_20_126
00000000 l    df *ABS*	00000000 tahomabold_32.c
08423382 l     O .rodata	000001b8 tahomabold_32_33
0842353a l     O .rodata	00000280 tahomabold_32_34
084237ba l     O .rodata	00000410 tahomabold_32_35
08423bca l     O .rodata	00000320 tahomabold_32_36
08423eea l     O .rodata	000005f0 tahomabold_32_37
084244da l     O .rodata	00000410 tahomabold_32_38
084248ea l     O .rodata	00000168 tahomabold_32_39
08424a52 l     O .rodata	00000258 tahomabold_32_40
08424caa l     O .rodata	00000258 tahomabold_32_41
08424f02 l     O .rodata	00000320 tahomabold_32_42
08425222 l     O .rodata	00000410 tahomabold_32_43
08425632 l     O .rodata	00000190 tahomabold_32_44
084257c2 l     O .rodata	00000230 tahomabold_32_45
084259f2 l     O .rodata	00000190 tahomabold_32_46
08425b82 l     O .rodata	000002d0 tahomabold_32_47
08425e52 l     O .rodata	00000320 tahomabold_32_48
08426172 l     O .rodata	00000320 tahomabold_32_49
08426492 l     O .rodata	00000320 tahomabold_32_50
084267b2 l     O .rodata	00000320 tahomabold_32_51
08426ad2 l     O .rodata	00000320 tahomabold_32_52
08426df2 l     O .rodata	00000320 tahomabold_32_53
08427112 l     O .rodata	00000320 tahomabold_32_54
08427432 l     O .rodata	00000320 tahomabold_32_55
08427752 l     O .rodata	00000320 tahomabold_32_56
08427a72 l     O .rodata	00000320 tahomabold_32_57
08427d92 l     O .rodata	000001e0 tahomabold_32_58
08427f72 l     O .rodata	000001e0 tahomabold_32_59
08428152 l     O .rodata	00000410 tahomabold_32_60
08428562 l     O .rodata	00000410 tahomabold_32_61
08428972 l     O .rodata	00000410 tahomabold_32_62
08428d82 l     O .rodata	000002d0 tahomabold_32_63
08429052 l     O .rodata	00000488 tahomabold_32_64
084294da l     O .rodata	00000370 tahomabold_32_65
0842984a l     O .rodata	00000370 tahomabold_32_66
08429bba l     O .rodata	00000348 tahomabold_32_67
08429f02 l     O .rodata	000003c0 tahomabold_32_68
0842a2c2 l     O .rodata	00000320 tahomabold_32_69
0842a5e2 l     O .rodata	000002f8 tahomabold_32_70
0842a8da l     O .rodata	000003c0 tahomabold_32_71
0842ac9a l     O .rodata	000003c0 tahomabold_32_72
0842b05a l     O .rodata	00000258 tahomabold_32_73
0842b2b2 l     O .rodata	00000280 tahomabold_32_74
0842b532 l     O .rodata	00000398 tahomabold_32_75
0842b8ca l     O .rodata	000002d0 tahomabold_32_76
0842bb9a l     O .rodata	00000488 tahomabold_32_77
0842c022 l     O .rodata	000003e8 tahomabold_32_78
0842c40a l     O .rodata	000003e8 tahomabold_32_79
0842c7f2 l     O .rodata	00000348 tahomabold_32_80
0842cb3a l     O .rodata	000003e8 tahomabold_32_81
0842cf22 l     O .rodata	000003c0 tahomabold_32_82
0842d2e2 l     O .rodata	00000320 tahomabold_32_83
0842d602 l     O .rodata	00000320 tahomabold_32_84
0842d922 l     O .rodata	000003c0 tahomabold_32_85
0842dce2 l     O .rodata	00000370 tahomabold_32_86
0842e052 l     O .rodata	00000528 tahomabold_32_87
0842e57a l     O .rodata	00000370 tahomabold_32_88
0842e8ea l     O .rodata	00000370 tahomabold_32_89
0842ec5a l     O .rodata	00000320 tahomabold_32_90
0842ef7a l     O .rodata	00000258 tahomabold_32_91
0842f1d2 l     O .rodata	000002d0 tahomabold_32_92
0842f4a2 l     O .rodata	00000258 tahomabold_32_93
0842f6fa l     O .rodata	00000410 tahomabold_32_94
0842fb0a l     O .rodata	00000320 tahomabold_32_95
0842fe2a l     O .rodata	000002a8 tahomabold_32_96
084300d2 l     O .rodata	000002f8 tahomabold_32_97
084303ca l     O .rodata	00000320 tahomabold_32_98
084306ea l     O .rodata	000002a8 tahomabold_32_99
08430992 l     O .rodata	00000320 tahomabold_32_100
08430cb2 l     O .rodata	000002f8 tahomabold_32_101
08430faa l     O .rodata	00000230 tahomabold_32_102
084311da l     O .rodata	00000320 tahomabold_32_103
084314fa l     O .rodata	00000320 tahomabold_32_104
0843181a l     O .rodata	00000190 tahomabold_32_105
084319aa l     O .rodata	00000208 tahomabold_32_106
08431bb2 l     O .rodata	000002f8 tahomabold_32_107
08431eaa l     O .rodata	00000190 tahomabold_32_108
0843203a l     O .rodata	000004d8 tahomabold_32_109
08432512 l     O .rodata	00000320 tahomabold_32_110
08432832 l     O .rodata	00000320 tahomabold_32_111
08432b52 l     O .rodata	00000320 tahomabold_32_112
08432e72 l     O .rodata	00000320 tahomabold_32_113
08433192 l     O .rodata	00000230 tahomabold_32_114
084333c2 l     O .rodata	00000280 tahomabold_32_115
08433642 l     O .rodata	00000208 tahomabold_32_116
0843384a l     O .rodata	00000320 tahomabold_32_117
08433b6a l     O .rodata	000002f8 tahomabold_32_118
08433e62 l     O .rodata	00000460 tahomabold_32_119
084342c2 l     O .rodata	000002f8 tahomabold_32_120
084345ba l     O .rodata	000002d0 tahomabold_32_121
0843488a l     O .rodata	000002a8 tahomabold_32_122
08434b32 l     O .rodata	00000320 tahomabold_32_123
08434e52 l     O .rodata	00000320 tahomabold_32_124
08435172 l     O .rodata	00000320 tahomabold_32_125
08435492 l     O .rodata	00000410 tahomabold_32_126
00000000 l    df *ABS*	00000000 main.c
0844c234 l     O .bss	0000f500 WEIGHTS
00000000 l    df *ABS*	00000000 1lnn.c
0845b734 l     O .bss	0000f500 WEIGHTS
00000000 l    df *ABS*	00000000 mnist-utils.c
00000000 l    df *ABS*	00000000 weights.c
08435984 l     O .rodata	0000f500 WEIGHTS
00000000 l    df *ABS*	00000000 I2C.c
00000000 l    df *ABS*	00000000 LCD.c
00000000 l    df *ABS*	00000000 debug.c
00000000 l    df *ABS*	00000000 geometry.c
00000000 l    df *ABS*	00000000 gui.c
0844c1f8 l     O .bss	00000004 x.4232
08448b08 l     O .rwdata	00000004 y.4233
00000000 l    df *ABS*	00000000 gui_vpg.c
00000000 l    df *ABS*	00000000 queue.c
00000000 l    df *ABS*	00000000 simple_graphics.c
00000000 l    df *ABS*	00000000 simple_text.c
00000000 l    df *ABS*	00000000 touch_spi.c
00000000 l    df *ABS*	00000000 w_sqrt.c
00000000 l    df *ABS*	00000000 e_sqrt.c
00000000 l    df *ABS*	00000000 s_fpclassify.c
00000000 l    df *ABS*	00000000 s_lib_ver.c
00000000 l    df *ABS*	00000000 s_matherr.c
00000000 l    df *ABS*	00000000 lib2-divmod.c
00000000 l    df *ABS*	00000000 adddf3.c
00000000 l    df *ABS*	00000000 divdf3.c
00000000 l    df *ABS*	00000000 gedf2.c
00000000 l    df *ABS*	00000000 ledf2.c
00000000 l    df *ABS*	00000000 muldf3.c
00000000 l    df *ABS*	00000000 subdf3.c
00000000 l    df *ABS*	00000000 fixdfsi.c
00000000 l    df *ABS*	00000000 floatsidf.c
00000000 l    df *ABS*	00000000 libgcc2.c
00000000 l    df *ABS*	00000000 libgcc2.c
00000000 l    df *ABS*	00000000 errno.c
00000000 l    df *ABS*	00000000 exit.c
00000000 l    df *ABS*	00000000 fopen.c
00000000 l    df *ABS*	00000000 fread.c
00000000 l    df *ABS*	00000000 mallocr.c
00000000 l    df *ABS*	00000000 fseek.c
00000000 l    df *ABS*	00000000 fseeko.c
00000000 l    df *ABS*	00000000 fstatr.c
00000000 l    df *ABS*	00000000 impure.c
0844705c l     O .rwdata	00000424 impure_data
00000000 l    df *ABS*	00000000 int_errno.c
00000000 l    df *ABS*	00000000 makebuf.c
00000000 l    df *ABS*	00000000 malloc.c
00000000 l    df *ABS*	00000000 mallocr.c
00000000 l    df *ABS*	00000000 memcpy.c
00000000 l    df *ABS*	00000000 memset.c
00000000 l    df *ABS*	00000000 openr.c
00000000 l    df *ABS*	00000000 printf.c
00000000 l    df *ABS*	00000000 puts.c
00000000 l    df *ABS*	00000000 refill.c
0840c5e0 l     F .text	0000001c lflush
00000000 l    df *ABS*	00000000 sbrkr.c
00000000 l    df *ABS*	00000000 sprintf.c
00000000 l    df *ABS*	00000000 stdio.c
00000000 l    df *ABS*	00000000 strcpy.c
00000000 l    df *ABS*	00000000 strlen.c
00000000 l    df *ABS*	00000000 vfprintf.c
084452ba l     O .rodata	00000010 zeroes.4389
084452ca l     O .rodata	00000010 blanks.4388
00000000 l    df *ABS*	00000000 vfprintf.c
084452da l     O .rodata	00000010 zeroes.4404
08410f38 l     F .text	000000bc __sbprintf
084452ea l     O .rodata	00000010 blanks.4403
00000000 l    df *ABS*	00000000 vsnprintf.c
00000000 l    df *ABS*	00000000 writer.c
00000000 l    df *ABS*	00000000 wsetup.c
00000000 l    df *ABS*	00000000 closer.c
00000000 l    df *ABS*	00000000 __call_atexit.c
00000000 l    df *ABS*	00000000 dtoa.c
084114a0 l     F .text	00000200 quorem
00000000 l    df *ABS*	00000000 fflush.c
00000000 l    df *ABS*	00000000 findfp.c
08412fd0 l     F .text	00000008 __fp_unlock
08412fe4 l     F .text	0000019c __sinit.part.1
08413180 l     F .text	00000008 __fp_lock
00000000 l    df *ABS*	00000000 flags.c
00000000 l    df *ABS*	00000000 fvwrite.c
00000000 l    df *ABS*	00000000 fwalk.c
00000000 l    df *ABS*	00000000 isattyr.c
00000000 l    df *ABS*	00000000 locale.c
084478a8 l     O .rwdata	00000020 lc_ctype_charset
08447888 l     O .rwdata	00000020 lc_message_charset
084478c8 l     O .rwdata	00000038 lconv
00000000 l    df *ABS*	00000000 lseekr.c
00000000 l    df *ABS*	00000000 memchr.c
00000000 l    df *ABS*	00000000 memmove.c
00000000 l    df *ABS*	00000000 mprec.c
08445318 l     O .rodata	0000000c p05.2768
00000000 l    df *ABS*	00000000 readr.c
00000000 l    df *ABS*	00000000 mallocr.c
00000000 l    df *ABS*	00000000 strcmp.c
00000000 l    df *ABS*	00000000 vfprintf.c
0844544c l     O .rodata	00000010 blanks.4332
0844543c l     O .rodata	00000010 zeroes.4333
00000000 l    df *ABS*	00000000 vfprintf.c
084168d8 l     F .text	000000fc __sprint_r.part.0
0844546c l     O .rodata	00000010 blanks.4348
0844545c l     O .rodata	00000010 zeroes.4349
08417e64 l     F .text	000000bc __sbprintf
00000000 l    df *ABS*	00000000 mallocr.c
00000000 l    df *ABS*	00000000 fclose.c
00000000 l    df *ABS*	00000000 fputwc.c
00000000 l    df *ABS*	00000000 wbuf.c
00000000 l    df *ABS*	00000000 wcrtomb.c
00000000 l    df *ABS*	00000000 wctomb_r.c
00000000 l    df *ABS*	00000000 libgcc2.c
00000000 l    df *ABS*	00000000 libgcc2.c
00000000 l    df *ABS*	00000000 eqdf2.c
00000000 l    df *ABS*	00000000 floatunsidf.c
00000000 l    df *ABS*	00000000 alt_alarm_start.c
00000000 l    df *ABS*	00000000 alt_close.c
0841933c l     F .text	0000003c alt_get_errno
00000000 l    df *ABS*	00000000 alt_dev.c
08419448 l     F .text	0000002c alt_dev_null_write
00000000 l    df *ABS*	00000000 alt_errno.c
00000000 l    df *ABS*	00000000 alt_exit.c
00000000 l    df *ABS*	00000000 alt_fstat.c
084194a8 l     F .text	0000003c alt_get_errno
00000000 l    df *ABS*	00000000 alt_iic.c
00000000 l    df *ABS*	00000000 alt_iic_isr_register.c
00000000 l    df *ABS*	00000000 alt_irq_vars.c
00000000 l    df *ABS*	00000000 alt_isatty.c
08419834 l     F .text	0000003c alt_get_errno
00000000 l    df *ABS*	00000000 alt_load.c
08419914 l     F .text	00000068 alt_load_section
00000000 l    df *ABS*	00000000 alt_lseek.c
08419a00 l     F .text	0000003c alt_get_errno
00000000 l    df *ABS*	00000000 alt_main.c
00000000 l    df *ABS*	00000000 alt_malloc_lock.c
00000000 l    df *ABS*	00000000 alt_open.c
08419bd4 l     F .text	0000003c alt_get_errno
08419c10 l     F .text	000000c4 alt_file_locked
00000000 l    df *ABS*	00000000 alt_read.c
08419e28 l     F .text	0000003c alt_get_errno
00000000 l    df *ABS*	00000000 alt_release_fd.c
00000000 l    df *ABS*	00000000 alt_sbrk.c
08448b48 l     O .rwdata	00000004 heap_end
00000000 l    df *ABS*	00000000 alt_tick.c
00000000 l    df *ABS*	00000000 alt_usleep.c
00000000 l    df *ABS*	00000000 alt_write.c
0841a248 l     F .text	0000003c alt_get_errno
00000000 l    df *ABS*	00000000 alt_sys_init.c
0841a37c l     F .text	00000034 alt_dev_reg
08447aa8 l     O .rwdata	00001060 jtag_uart_0
00000000 l    df *ABS*	00000000 altera_avalon_jtag_uart_fd.c
00000000 l    df *ABS*	00000000 altera_avalon_jtag_uart_init.c
0841a674 l     F .text	0000020c altera_avalon_jtag_uart_irq
0841a880 l     F .text	000000a0 altera_avalon_jtag_uart_timeout
00000000 l    df *ABS*	00000000 altera_avalon_jtag_uart_ioctl.c
00000000 l    df *ABS*	00000000 altera_avalon_jtag_uart_read.c
00000000 l    df *ABS*	00000000 altera_avalon_jtag_uart_write.c
00000000 l    df *ABS*	00000000 altera_avalon_spi.c
00000000 l    df *ABS*	00000000 altera_avalon_timer_sc.c
0841b0b4 l     F .text	00000078 alt_avalon_timer_sc_irq
00000000 l    df *ABS*	00000000 alt_busy_sleep.c
00000000 l    df *ABS*	00000000 alt_dcache_flush_all.c
00000000 l    df *ABS*	00000000 alt_dev_llist_insert.c
0841b348 l     F .text	0000003c alt_get_errno
00000000 l    df *ABS*	00000000 alt_do_ctors.c
00000000 l    df *ABS*	00000000 alt_do_dtors.c
00000000 l    df *ABS*	00000000 alt_find_dev.c
00000000 l    df *ABS*	00000000 alt_find_file.c
00000000 l    df *ABS*	00000000 alt_get_fd.c
00000000 l    df *ABS*	00000000 alt_icache_flush_all.c
00000000 l    df *ABS*	00000000 alt_io_redirect.c
0841b7f4 l     F .text	000000c4 alt_open_fd
00000000 l    df *ABS*	00000000 altera_nios2_gen2_irq.c
00000000 l    df *ABS*	00000000 alt_icache_flush.c
00000000 l    df *ABS*	00000000 atexit.c
00000000 l    df *ABS*	00000000 memcmp.c
00000000 l    df *ABS*	00000000 __atexit.c
0844c230 g     O .bss	00000004 alt_instruction_exception_handler
08405064 g     F .text	0000007c vid_draw_horiz_line
08414cb4 g     F .text	00000074 _mprec_log10
084012d4 g     F .text	00000124 I2C_Read
08414da0 g     F .text	0000008c __any_on
08413a60 g     F .text	00000054 _isatty_r
08445324 g     O .rodata	00000028 __mprec_tinytens
08402324 g     F .text	00000068 LCD_DrawPoint
08419b10 g     F .text	0000007c alt_main
0840ca24 g     F .text	00000090 strcpy
0840c50c g     F .text	000000c0 _puts_r
0846ac5c g     O .bss	00000100 alt_irq
08413b90 g     F .text	00000060 _lseek_r
084051cc g     F .text	0000006c vid_color_convert16_24
08407ffc g     F .text	00000130 sqrt
08402090 g     F .text	000000a0 I2CL_Read16
08448b54 g       *ABS*	00000000 __flash_rwdata_start
08413370 g     F .text	000000ac __sflags
084190e0 g     F .text	00000088 .hidden __eqdf2
084079e0 g     F .text	00000168 touch_enable_penirq
0846ad5c g       *ABS*	00000000 __alt_heap_start
084042a0 g     F .text	00000064 QUEUE_IsFull
0840287c g     F .text	0000012c LCD_Pattern_Horizon
0840c4d0 g     F .text	0000003c printf
08418448 g     F .text	0000009c _wcrtomb_r
08403120 g     F .text	000001dc GUI_DeskInit
0840c9c0 g     F .text	0000005c __sseek
08413320 g     F .text	00000010 __sinit
084182f0 g     F .text	00000140 __swbuf_r
08413ab4 g     F .text	0000007c _setlocale_r
08413188 g     F .text	00000068 __sfmoreglue
08419bb0 g     F .text	00000024 __malloc_unlock
08404ca0 g     F .text	00000158 vid_draw_box
08403004 g     F .text	00000048 PtCopy
08400cac g     F .text	0000012c readImageFileHeader
08406b58 g     F .text	00000264 vid_print_string_alpha
08413cd4 g     F .text	0000015c memmove
08413308 g     F .text	00000018 _cleanup
08413e30 g     F .text	000000a8 _Balloc
08446c44 g     O .rwdata	00000415 cour10_font_array
08409778 g     F .text	000000dc .hidden __gtdf2
08404a7c g     F .text	0000011c vid_move_block
0841b934 g     F .text	00000024 altera_nios2_gen2_irq_init
0840ab1c g     F .text	00000010 __errno
084074bc g     F .text	000000e8 vid_string_pixel_length_alpha
08401f14 g     F .text	0000017c I2CL_MultipleWrite
084017f0 g     F .text	00000164 i2c_write
08000000 g     F .entry	0000001c __reset
08401054 g     F .text	00000044 my_wait
08400000 g       *ABS*	00000000 __flash_exceptions_start
084022a8 g     F .text	0000007c LCD_Clear
0840b784 g     F .text	0000005c _fstat_r
0844c1fc g     O .bss	00000004 errno
084013f8 g     F .text	00000178 I2C_Read16
0840c93c g     F .text	00000008 __seofread
0841569c g     F .text	0000123c ___svfiprintf_internal_r
0844c220 g     O .bss	00000004 alt_argv
08450b08 g       *ABS*	00000000 _gp
0841a218 g     F .text	00000030 usleep
08403a5c g     F .text	000000b4 VPG_ColorPanel
08406dbc g     F .text	00000148 seperate_color_channels
08447928 g     O .rwdata	00000180 alt_fd_list
0841b4e8 g     F .text	00000090 alt_find_dev
0840c1d0 g     F .text	00000148 memcpy
08412fd8 g     F .text	0000000c _cleanup_r
0840a9dc g     F .text	000000dc .hidden __floatsidf
084059f4 g     F .text	0000073c vid_round_corner_points
08407710 g     F .text	0000006c Touch_UnInit
0841b8b8 g     F .text	0000007c alt_io_redirect
08409854 g     F .text	000000f4 .hidden __ltdf2
0841bb90 g       *ABS*	00000000 __DTOR_END__
084032fc g     F .text	00000090 GUI_CheckButton
0840c5cc g     F .text	00000014 puts
0841b758 g     F .text	0000009c alt_exception_cause_generated_bad_addr
0840445c g     F .text	00000064 vid_clean_screen
084083b4 g     F .text	00000074 __fpclassifyd
08414c10 g     F .text	000000a4 __ratio
08417e48 g     F .text	0000001c __vfiprintf_internal
08404260 g     F .text	00000040 QUEUE_IsEmpty
084045d0 g     F .text	0000014c vid_scroll_string_init
0841aa78 g     F .text	0000021c altera_avalon_jtag_uart_read
0840b99c g     F .text	00000014 malloc
0840c4a0 g     F .text	00000030 _printf_r
084075a4 g     F .text	0000016c Touch_Init
08408528 g     F .text	00000064 .hidden __udivsi3
08419870 g     F .text	000000a4 isatty
08445374 g     O .rodata	000000c8 __mprec_tens
08413b30 g     F .text	0000000c __locale_charset
084110e4 g     F .text	00000034 vsnprintf
0840338c g     F .text	0000023c GUI_DeskDraw
0841b958 g     F .text	00000090 alt_icache_flush
08401570 g     F .text	0000017c I2C_MultipleRead
0844c208 g     O .bss	00000004 __malloc_top_pad
084009e8 g     F .text	00000128 updateCellWeights
08404428 g     F .text	00000034 QUEUE_Empty
08448b24 g     O .rwdata	00000004 __mb_cur_max
08413b60 g     F .text	0000000c _localeconv_r
0841423c g     F .text	0000003c __i2b
0841341c g     F .text	000004bc __sfvwrite_r
08404398 g     F .text	00000090 QUEUE_Pop
08400fec g     F .text	00000068 getLabel
0840c7d0 g     F .text	00000054 _sbrk_r
0840796c g     F .text	00000034 touch_empty_fifo
08402f1c g     F .text	00000034 RectHeight
08414e2c g     F .text	00000060 _read_r
08448b3c g     O .rwdata	00000004 alt_max_fd
08403a38 g     F .text	00000024 VPG_XLine
08417fe4 g     F .text	000000f0 _fclose_r
08412fa0 g     F .text	00000030 fflush
0844c204 g     O .bss	00000004 __malloc_max_sbrked_mem
08401bec g     F .text	00000168 I2CL_Read
08446070 g     O .rwdata	00000bc0 tahomabold_32
084085e4 g     F .text	000008ac .hidden __adddf3
0840365c g     F .text	0000008c GUI_ClearPaintArea
08402cc4 g     F .text	00000044 PtSet
084149b8 g     F .text	0000010c __b2d
08418ba8 g     F .text	00000538 .hidden __umoddi3
08419a3c g     F .text	000000d4 lseek
08448b10 g     O .rwdata	00000004 __fdlib_version
08448b14 g     O .rwdata	00000004 _global_impure_ptr
084054f0 g     F .text	00000148 vid_draw_circle
08414e8c g     F .text	00000564 _realloc_r
0846ad5c g       *ABS*	00000000 __bss_end
08419744 g     F .text	000000f0 alt_iic_isr_register
0841a110 g     F .text	00000108 alt_tick
08401194 g     F .text	00000140 I2C_Write16
08402df4 g     F .text	0000008c RectOffset
08418630 g     F .text	00000578 .hidden __udivdi3
0841824c g     F .text	00000024 _fputwc_r
0844534c g     O .rodata	00000028 __mprec_bigtens
08414020 g     F .text	00000104 __s2b
0840527c g     F .text	00000274 vid_draw_sloped_line
08419168 g     F .text	000000a8 .hidden __floatunsidf
084146f8 g     F .text	00000060 __mcmp
08403c10 g     F .text	000000e8 VPG_VGrid
08413340 g     F .text	00000018 __fp_lock_all
084196f8 g     F .text	0000004c alt_ic_irq_enabled
08401098 g     F .text	000000fc I2C_Write
08405638 g     F .text	000003bc vid_draw_round_corner_box
08400f64 g     F .text	00000088 getImage
0841a074 g     F .text	0000009c alt_alarm_stop
0844c218 g     O .bss	00000004 alt_irq_active
0840b324 g     F .text	00000444 _fseeko_r
084029a8 g     F .text	000000e0 LCD_Pattern_Vertical
084000dc g     F .exceptions	000000d4 alt_irq_handler
08447900 g     O .rwdata	00000028 alt_dev_null
08402130 g     F .text	0000008c I2CL_Write16
08400b10 g     F .text	0000006c trainCell
084016ec g     F .text	0000008c i2c_start
0841b300 g     F .text	00000048 alt_dcache_flush_all
08414124 g     F .text	00000068 __hi0bits
08407eb0 g     F .text	00000070 touch_alarm_callback
0840a95c g     F .text	00000080 .hidden __fixdfsi
08400b7c g     F .text	00000044 testCell
084079a0 g     F .text	00000040 touch_is_pen_pressed
08448b54 g       *ABS*	00000000 __ram_rwdata_end
08406584 g     F .text	000003b4 vid_draw_triangle
08448b34 g     O .rwdata	00000008 alt_dev_list
0841a284 g     F .text	000000f8 write
08446c30 g     O .rwdata	00000014 szPallete
08406a24 g     F .text	00000134 CropImage16
084454b0 g       *ABS*	00000000 __ram_rodata_end
084194e4 g     F .text	000000b0 fstat
08409854 g     F .text	000000f4 .hidden __ledf2
0840471c g     F .text	00000360 vid_scroll_string
08402abc g     F .text	0000006c myprintf
08407b7c g     F .text	00000334 touch_get_xy
08414470 g     F .text	00000140 __pow5mult
084169ec g     F .text	0000145c ___vfiprintf_internal_r
0844c214 g     O .bss	00000004 __nlocale_changed
0840858c g     F .text	00000058 .hidden __umodsi3
084078f0 g     F .text	0000007c touch_isr
08402ee8 g     F .text	00000034 RectWidth
08406938 g     F .text	000000ec CopyImage16
0846ad5c g       *ABS*	00000000 end
08404114 g     F .text	000000a8 GUI_VPG
0840b768 g     F .text	0000001c fseeko
08403910 g     F .text	00000068 GUI_ShowInfo
0840b308 g     F .text	0000001c fseek
0841a5b4 g     F .text	000000c0 altera_avalon_jtag_uart_init
084001b0 g     F .exceptions	00000074 alt_instruction_exception_entry
08404df8 g     F .text	000000f0 vid_print_char
0841bb90 g       *ABS*	00000000 __CTOR_LIST__
0c000000 g       *ABS*	00000000 __alt_stack_pointer
0841b12c g     F .text	0000007c alt_avalon_timer_sc_init
0840aab8 g     F .text	00000064 .hidden __clzsi2
0841ac94 g     F .text	00000224 altera_avalon_jtag_uart_write
08406184 g     F .text	00000054 min3
08403f94 g     F .text	00000180 GUI_ShowPAT
084044c0 g     F .text	000000cc vid_draw_line
08400c38 g     F .text	00000074 flipBytes
08400828 g     F .text	0000013c calcCellOutput
08413330 g     F .text	00000004 __sfp_lock_acquire
08413bf0 g     F .text	000000e4 memchr
0840ed24 g     F .text	000021f8 ___vfprintf_internal_r
0840c824 g     F .text	00000058 _sprintf_r
0840aff4 g     F .text	00000310 _free_r
08413b3c g     F .text	00000010 __locale_mb_cur_max
0840220c g     F .text	0000009c LCD_SetCursor
08411320 g     F .text	00000180 __call_exitprocs
0844c210 g     O .bss	00000004 __mlocale_changed
08403b10 g     F .text	00000100 VPG_Grid
08448b1c g     O .rwdata	00000004 __malloc_sbrk_base
08400224 g     F .text	0000004c _start
0844c228 g     O .bss	00000004 _alt_tick_rate
0840079c g     F .text	0000008c setCellInput
08407b48 g     F .text	00000034 touch_clear_input
084145b0 g     F .text	00000148 __lshift
0841aeb8 g     F .text	000001fc alt_avalon_spi_command
08404304 g     F .text	00000094 QUEUE_Push
0844c22c g     O .bss	00000004 _alt_nticks
0840623c g     F .text	00000104 vid_put_pixel_in_span_map
08419e64 g     F .text	000000fc read
08403de0 g     F .text	000001b4 VPG_ColorBar
0841a3e8 g     F .text	00000068 alt_sys_init
084154cc g     F .text	000001d0 __ssprint_r
0840c440 g     F .text	00000060 _open_r
0841ba78 g     F .text	00000118 __register_exitproc
08400e84 g     F .text	00000070 openMNISTImageFile
08414278 g     F .text	000001f8 __multiply
08404fcc g     F .text	00000098 vid_paint_block
0841a920 g     F .text	00000068 altera_avalon_jtag_uart_close
084454b0 g       *ABS*	00000000 __ram_rwdata_start
0841bb90 g       *ABS*	00000000 __ram_rodata_start
084006e4 g     F .text	000000b8 getLayerPrediction
0846ac34 g     O .bss	00000028 __malloc_current_mallinfo
08414ac4 g     F .text	0000014c __d2b
08403cf8 g     F .text	000000e8 VPG_HGrid
0840512c g     F .text	000000a0 vid_color_convert24_16
0841a450 g     F .text	00000060 altera_avalon_jtag_uart_read_fd
0841b680 g     F .text	000000a4 alt_get_fd
0841b1a8 g     F .text	00000158 alt_busy_sleep
084112cc g     F .text	00000054 _close_r
084036e8 g     F .text	00000228 GUI
08407078 g     F .text	0000025c alpha_blending
0841b9fc g     F .text	0000007c memcmp
0841a510 g     F .text	00000050 altera_avalon_jtag_uart_close_fd
0846ad5c g       *ABS*	00000000 __alt_stack_base
0841a560 g     F .text	00000054 altera_avalon_jtag_uart_ioctl_fd
08411178 g     F .text	00000154 __swsetup_r
08408e90 g     F .text	000008e8 .hidden __divdf3
084131f0 g     F .text	00000118 __sfp
08414d28 g     F .text	00000078 __copybits
08447480 g     O .rwdata	00000408 __malloc_av_
0841333c g     F .text	00000004 __sinit_lock_release
08410ff4 g     F .text	000000f0 _vsnprintf_r
08401778 g     F .text	00000078 i2c_stop
08409948 g     F .text	00000718 .hidden __muldf3
0840c8e8 g     F .text	00000054 __sread
0840ae9c g     F .text	00000034 fread
0841b578 g     F .text	00000108 alt_find_file
0841b384 g     F .text	000000a4 alt_dev_llist_insert
08419b8c g     F .text	00000024 __malloc_lock
08405238 g     F .text	00000044 vid_copy_line_to_frame_buffer
08419fc4 g     F .text	000000b0 sbrk
0840cb4c g     F .text	000021d8 ___svfprintf_internal_r
08412f44 g     F .text	0000005c _fflush_r
08417f20 g     F .text	000000c4 _calloc_r
084041bc g     F .text	00000070 QUEUE_New
0840ac58 g     F .text	00000018 fopen
0844c1f8 g       *ABS*	00000000 __bss_start
0840238c g     F .text	000004f0 LCD_Init
0840c318 g     F .text	00000128 memset
08400270 g     F .text	000002bc main
0844c224 g     O .bss	00000004 alt_envp
0844c200 g     O .bss	00000004 __malloc_max_total_mem
08402b28 g     F .text	00000088 myprintf_hexarray
0841a4b0 g     F .text	00000060 altera_avalon_jtag_uart_write_fd
08403978 g     F .text	0000005c GUI_ShowTouchPoint
08401954 g     F .text	00000158 i2c_read
08418430 g     F .text	00000018 __swbuf
0840ac70 g     F .text	0000022c _fread_r
084454b0 g     O .rwdata	00000bc0 tahomabold_20
08400ef4 g     F .text	00000070 openMNISTLabelFile
0840ca1c g     F .text	00000008 __sclose
08408428 g     F .text	00000008 matherr
0c000000 g       *ABS*	00000000 __alt_heap_limit
084072d4 g     F .text	000001e8 vid_print_char_alpha
084180d4 g     F .text	00000014 fclose
08448b0c g     O .rwdata	00000004 cour10_font
084116a0 g     F .text	00001688 _dtoa_r
0840b9c4 g     F .text	0000080c _malloc_r
084185a4 g     F .text	00000030 __ascii_wctomb
08448b40 g     O .rwdata	00000004 alt_errno
084138d8 g     F .text	000000c4 _fwalk
08402f50 g     F .text	000000b4 PtDistance
08402d08 g     F .text	00000060 RectSet
08408430 g     F .text	00000084 .hidden __divsi3
084021bc g     F .text	00000050 Delay_Ms
08402e80 g     F .text	00000068 RectCopy
0840aed0 g     F .text	00000124 _malloc_trim_r
0841bb90 g       *ABS*	00000000 __CTOR_END__
084153f0 g     F .text	000000dc strcmp
08407034 g     F .text	00000044 read_from_frame
0841bb90 g       *ABS*	00000000 __flash_rodata_start
0841bb90 g       *ABS*	00000000 __DTOR_LIST__
08404f8c g     F .text	00000040 vid_get_pixel
084190e0 g     F .text	00000088 .hidden __nedf2
08400dd8 g     F .text	000000ac readLabelFileHeader
0841a3b0 g     F .text	00000038 alt_irq_init
08419f60 g     F .text	00000064 alt_release_fd
0840c87c g     F .text	0000006c sprintf
0844516d g     O .rodata	00000100 .hidden __clz_tab
08402a88 g     F .text	00000034 debug_output
0844c20c g     O .bss	00000004 _PathLocale
0841b9e8 g     F .text	00000014 atexit
08411118 g     F .text	00000060 _write_r
08402c40 g     F .text	00000084 IsPtInRect
08413b6c g     F .text	00000018 setlocale
08448b18 g     O .rwdata	00000004 _impure_ptr
0844c21c g     O .bss	00000004 alt_argc
08412d28 g     F .text	0000021c __sflush_r
0841b488 g     F .text	00000060 _do_dtors
08413b58 g     F .text	00000008 __locale_cjk_lang
08402bb0 g     F .text	00000090 myprintf_dwordarray
08401d54 g     F .text	000001c0 I2CL_MultipleRead
0840b304 g     F .text	00000004 _fseek_r
0840c5fc g     F .text	000001d4 __srefill_r
08400964 g     F .text	00000084 getCellError
08400000 g       .exceptions	00000000 alt_irq_entry
08414954 g     F .text	00000064 __ulp
08413358 g     F .text	00000018 __fp_unlock_all
084077b8 g     F .text	00000138 Touch_GetXY
08448b2c g     O .rwdata	00000008 alt_fs_list
08404b98 g     F .text	00000108 vid_print_string
08400bc0 g     F .text	00000078 testLayer
08400000 g       *ABS*	00000000 __ram_exceptions_start
08413b84 g     F .text	0000000c localeconv
0840812c g     F .text	00000288 __ieee754_sqrt
08419594 g     F .text	00000050 alt_ic_isr_register
0840052c g     F .text	000000c8 getTargetOutput
08448b54 g       *ABS*	00000000 _edata
0846ad5c g       *ABS*	00000000 _end
084039d4 g     F .text	00000064 ShowInfo
08406130 g     F .text	00000054 max3
084180e8 g     F .text	00000164 __fputwc
08400224 g       *ABS*	00000000 __ram_exceptions_end
0841a988 g     F .text	000000f0 altera_avalon_jtag_uart_ioctl
084005f4 g     F .text	000000f0 initLayer
0841966c g     F .text	0000008c alt_ic_irq_disable
084050e0 g     F .text	0000004c vid_merge_colors
0840c944 g     F .text	0000007c __swrite
08448b20 g     O .rwdata	00000004 __malloc_trim_threshold
08413b4c g     F .text	0000000c __locale_msgcharset
0840ab2c g     F .text	00000038 exit
0841399c g     F .text	000000c4 _fwalk_reent
08414758 g     F .text	000001fc __mdiff
084035c8 g     F .text	00000094 IsContinuedPoint
084084b4 g     F .text	00000074 .hidden __modsi3
0c000000 g       *ABS*	00000000 __alt_data_end
08400000 g     F .exceptions	00000000 alt_exception
08413334 g     F .text	00000004 __sfp_lock_release
08000000 g       *ABS*	00000000 __alt_mem_sdram
0840422c g     F .text	00000034 QUEUE_Delete
08407f20 g     F .text	000000dc touch_xy_transform
08404ee8 g     F .text	000000a4 vid_set_pixel
0840ab64 g     F .text	000000f4 _fopen_r
08419474 g     F .text	00000034 _exit
08419210 g     F .text	0000012c alt_alarm_start
0840458c g     F .text	00000044 vid_scroll_string_quit
0840b7e0 g     F .text	000001bc __smakebuf_r
0840cab4 g     F .text	00000098 strlen
08419cd4 g     F .text	00000154 open
08409778 g     F .text	000000dc .hidden __gedf2
08402d68 g     F .text	0000008c RectInflate
08448b28 g     O .rwdata	00000004 __wctomb
084169d4 g     F .text	00000018 __sprint_r
0841b724 g     F .text	00000034 alt_icache_flush_all
08448b44 g     O .rwdata	00000004 alt_priority_mask
084195e4 g     F .text	00000088 alt_ic_irq_enable
08410f1c g     F .text	0000001c __vfprintf_internal
084185d4 g     F .text	0000005c _wctomb_r
0840a060 g     F .text	000008fc .hidden __subdf3
08406340 g     F .text	00000244 vid_bres_scan_edges
0841418c g     F .text	000000b0 __lo0bits
08448b4c g     O .rwdata	00000008 alt_alarm_list
084061d8 g     F .text	00000064 max_diff3
0841b428 g     F .text	00000060 _do_ctors
08401aac g     F .text	00000140 I2CL_Write
0840304c g     F .text	000000d4 GUI_ShowWelcome
08406f04 g     F .text	00000130 merge_color_channels
084184e4 g     F .text	000000c0 wcrtomb
08419378 g     F .text	000000d0 close
0841997c g     F .text	00000084 alt_load
0840777c g     F .text	0000003c Touch_EmptyFifo
08418270 g     F .text	00000080 fputwc
0840b9b0 g     F .text	00000014 free
08413338 g     F .text	00000004 __sinit_lock_acquire
08413f00 g     F .text	00000120 __multadd
08413ed8 g     F .text	00000028 _Bfree



Disassembly of section .entry:

08000000 <__reset>:
#if NIOS2_ICACHE_SIZE > 0 && defined(ALT_ALLOW_CODE_AT_RESET) && (!defined(ALT_SIM_OPTIMIZE) || defined(NIOS2_ECC_PRESENT))
    /* Assume the instruction cache size is always a power of two. */
#if NIOS2_ICACHE_SIZE > 0x8000
    movhi r2, %hi(NIOS2_ICACHE_SIZE)
#else
    movui r2, NIOS2_ICACHE_SIZE
 8000000:	00840014 	movui	r2,4096
#endif

0:
    initi r2
 8000004:	1001483a 	initi	r2
    addi r2, r2, -NIOS2_ICACHE_LINE_SIZE
 8000008:	10bff804 	addi	r2,r2,-32
    bgt r2, zero, 0b
 800000c:	00bffd16 	blt	zero,r2,8000004 <__alt_data_end+0xfc000004>
 * Jump to the _start entry point in the .text section if reset code
 * is allowed or if optimizing for RTL simulation.
 */
#if defined(ALT_ALLOW_CODE_AT_RESET) || defined(ALT_SIM_OPTIMIZE)
    /* Jump to the _start entry point in the .text section. */
    movhi r1, %hi(_start)
 8000010:	00421034 	movhi	at,2112
    ori r1, r1, %lo(_start)
 8000014:	08408914 	ori	at,at,548
    jmp r1
 8000018:	0800683a 	jmp	at
 800001c:	00000000 	call	0 <__alt_mem_sdram-0x8000000>

Disassembly of section .exceptions:

08400000 <alt_exception>:

#else /* ALT_EXCEPTION_STACK disabled */
        /* 
         * Reserve space on normal stack for registers about to be pushed.
         */
        addi  sp, sp, -76
 8400000:	deffed04 	addi	sp,sp,-76
         * documentation for details).
         *
         * Leave a gap in the stack frame at 4(sp) for the muldiv handler to
         * store zero into.
         */
        stw   ra,  0(sp)
 8400004:	dfc00015 	stw	ra,0(sp)
        stw   r1,   8(sp)
 8400008:	d8400215 	stw	at,8(sp)
        stw   r2,  12(sp)
 840000c:	d8800315 	stw	r2,12(sp)
        stw   r3,  16(sp)
 8400010:	d8c00415 	stw	r3,16(sp)
        stw   r4,  20(sp)
 8400014:	d9000515 	stw	r4,20(sp)
        stw   r5,  24(sp)
 8400018:	d9400615 	stw	r5,24(sp)
        stw   r6,  28(sp)
 840001c:	d9800715 	stw	r6,28(sp)
        stw   r7,  32(sp)
 8400020:	d9c00815 	stw	r7,32(sp)
        rdctl r5, estatus   /* Read early to avoid usage stall */
 8400024:	000b307a 	rdctl	r5,estatus
        stw   r8,  36(sp)
 8400028:	da000915 	stw	r8,36(sp)
        stw   r9,  40(sp)
 840002c:	da400a15 	stw	r9,40(sp)
        stw   r10, 44(sp)
 8400030:	da800b15 	stw	r10,44(sp)
        stw   r11, 48(sp)
 8400034:	dac00c15 	stw	r11,48(sp)
        stw   r12, 52(sp)
 8400038:	db000d15 	stw	r12,52(sp)
        stw   r13, 56(sp)
 840003c:	db400e15 	stw	r13,56(sp)
        stw   r14, 60(sp)
 8400040:	db800f15 	stw	r14,60(sp)
        stw   r15, 64(sp)
 8400044:	dbc01015 	stw	r15,64(sp)
        /*
         * ea-4 contains the address of the instruction being executed
         * when the exception occured. For interrupt exceptions, we will
         * will be re-issue the isntruction. Store it in 72(sp)
         */
        stw   r5,  68(sp)  /* estatus */
 8400048:	d9401115 	stw	r5,68(sp)
        addi  r15, ea, -4  /* instruction that caused exception */
 840004c:	ebffff04 	addi	r15,ea,-4
        stw   r15,  72(sp)
 8400050:	dbc01215 	stw	r15,72(sp)
#else
        /*
         * Test to see if the exception was a software exception or caused 
         * by an external interrupt, and vector accordingly.
         */
        rdctl r4, ipending
 8400054:	0009313a 	rdctl	r4,ipending
        andi  r2, r5, 1
 8400058:	2880004c 	andi	r2,r5,1
        beq   r2, zero, .Lnot_irq
 840005c:	10000326 	beq	r2,zero,840006c <alt_exception+0x6c>
        beq   r4, zero, .Lnot_irq
 8400060:	20000226 	beq	r4,zero,840006c <alt_exception+0x6c>
        /*
         * Now that all necessary registers have been preserved, call 
         * alt_irq_handler() to process the interrupts.
         */

        call alt_irq_handler
 8400064:	84000dc0 	call	84000dc <alt_irq_handler>

        .section .exceptions.irqreturn, "xa"

        br    .Lexception_exit
 8400068:	00000706 	br	8400088 <alt_exception+0x88>
         * upon completion, so we write ea (address of instruction *after*
         * the one where the exception occured) into 72(sp). The actual
         * instruction that caused the exception is written in r2, which these
         * handlers will utilize.
         */
        stw ea, 72(sp) /* EA is PC+4 so will skip over instruction causing exception */
 840006c:	df401215 	stw	ea,72(sp)
.Lunknown_16bit:
        addi.n r4, r4, 2 /* Need PC+2 to skip over instruction causing exception */
        stw r4, 72(sp)

#else /* CDX is not Enabled and all instructions are 32bits */
        ldw r2, -4(ea) /* Instruction value that caused exception */
 8400070:	e8bfff17 	ldw	r2,-4(ea)
         * debugger is present) or go into an infinite loop since the
         * handling behavior is undefined; in that case we will not return here.
         */

        /* Load exception-causing address as first argument (r4) */
        addi   r4, ea, -4
 8400074:	e93fff04 	addi	r4,ea,-4

        /* Call the instruction-exception entry */
        call   alt_instruction_exception_entry
 8400078:	84001b00 	call	84001b0 <alt_instruction_exception_entry>
         * instruction
         *
         * Return code was 0: Skip. The instruction after the exception is
         * already stored in 72(sp).
         */
        bne   r2, r0, .Lexception_exit
 840007c:	1000021e 	bne	r2,zero,8400088 <alt_exception+0x88>

        /*
         * Otherwise, modify 72(sp) to re-issue the instruction that caused the
         * exception.
         */
        addi  r15, ea, -4  /* instruction that caused exception */
 8400080:	ebffff04 	addi	r15,ea,-4
        stw   r15,  72(sp)
 8400084:	dbc01215 	stw	r15,72(sp)
        /* 
         * Restore the saved registers, so that all general purpose registers 
         * have been restored to their state at the time the interrupt occured.
         */

        ldw   r5,  68(sp)
 8400088:	d9401117 	ldw	r5,68(sp)
        ldw   ea,  72(sp)  /* This becomes the PC once eret is executed */
 840008c:	df401217 	ldw	ea,72(sp)
        ldw   ra,   0(sp)
 8400090:	dfc00017 	ldw	ra,0(sp)

        wrctl estatus, r5
 8400094:	2801707a 	wrctl	estatus,r5

        ldw   r1,   8(sp)
 8400098:	d8400217 	ldw	at,8(sp)
        ldw   r2,  12(sp)
 840009c:	d8800317 	ldw	r2,12(sp)
        ldw   r3,  16(sp)
 84000a0:	d8c00417 	ldw	r3,16(sp)
        ldw   r4,  20(sp)
 84000a4:	d9000517 	ldw	r4,20(sp)
        ldw   r5,  24(sp)
 84000a8:	d9400617 	ldw	r5,24(sp)
        ldw   r6,  28(sp)
 84000ac:	d9800717 	ldw	r6,28(sp)
        ldw   r7,  32(sp)
 84000b0:	d9c00817 	ldw	r7,32(sp)

#if defined(ALT_EXCEPTION_STACK) && defined(ALT_STACK_CHECK)
        ldw   et, %gprel(alt_exception_old_stack_limit)(gp)
#endif

        ldw   r8,  36(sp)
 84000b4:	da000917 	ldw	r8,36(sp)
        ldw   r9,  40(sp)
 84000b8:	da400a17 	ldw	r9,40(sp)
        ldw   r10, 44(sp)
 84000bc:	da800b17 	ldw	r10,44(sp)
        ldw   r11, 48(sp)
 84000c0:	dac00c17 	ldw	r11,48(sp)
        ldw   r12, 52(sp)
 84000c4:	db000d17 	ldw	r12,52(sp)
        ldw   r13, 56(sp)
 84000c8:	db400e17 	ldw	r13,56(sp)
        ldw   r14, 60(sp)
 84000cc:	db800f17 	ldw	r14,60(sp)
        ldw   r15, 64(sp)
 84000d0:	dbc01017 	ldw	r15,64(sp)
        stw   et, %gprel(alt_stack_limit_value)(gp)
        stw   zero, %gprel(alt_exception_old_stack_limit)(gp)
#endif /* ALT_STACK_CHECK */
        ldw   sp,  76(sp)
#else /* ALT_EXCEPTION_STACK disabled */
        addi  sp, sp, 76
 84000d4:	dec01304 	addi	sp,sp,76

        /*
         * Return to the interrupted instruction.
         */

        eret
 84000d8:	ef80083a 	eret

084000dc <alt_irq_handler>:
 * instruction is present if the macro ALT_CI_INTERRUPT_VECTOR defined.
 */

void alt_irq_handler (void) __attribute__ ((section (".exceptions")));
void alt_irq_handler (void)
{
 84000dc:	defff904 	addi	sp,sp,-28
 84000e0:	dfc00615 	stw	ra,24(sp)
 84000e4:	df000515 	stw	fp,20(sp)
 84000e8:	df000504 	addi	fp,sp,20
  
  /*
   * Notify the operating system that we are at interrupt level.
   */ 
  
  ALT_OS_INT_ENTER();
 84000ec:	0001883a 	nop
#ifndef NIOS2_EIC_PRESENT
static ALT_INLINE alt_u32 ALT_ALWAYS_INLINE alt_irq_pending (void)
{
  alt_u32 active;

  NIOS2_READ_IPENDING (active);
 84000f0:	0005313a 	rdctl	r2,ipending
 84000f4:	e0bffe15 	stw	r2,-8(fp)

  return active;
 84000f8:	e0bffe17 	ldw	r2,-8(fp)
   * Consider the case where the high priority interupt is asserted during
   * the interrupt entry sequence for a lower priority interrupt to see why
   * this is the case.
   */

  active = alt_irq_pending ();
 84000fc:	e0bffb15 	stw	r2,-20(fp)

  do
  {
    i = 0;
 8400100:	e03ffd15 	stw	zero,-12(fp)
    mask = 1;
 8400104:	00800044 	movi	r2,1
 8400108:	e0bffc15 	stw	r2,-16(fp)
     * called to clear the interrupt condition.
     */

    do
    {
      if (active & mask)
 840010c:	e0fffb17 	ldw	r3,-20(fp)
 8400110:	e0bffc17 	ldw	r2,-16(fp)
 8400114:	1884703a 	and	r2,r3,r2
 8400118:	10001426 	beq	r2,zero,840016c <alt_irq_handler+0x90>
      { 
#ifdef ALT_ENHANCED_INTERRUPT_API_PRESENT
        alt_irq[i].handler(alt_irq[i].context); 
 840011c:	008211f4 	movhi	r2,2119
 8400120:	10ab1704 	addi	r2,r2,-21412
 8400124:	e0fffd17 	ldw	r3,-12(fp)
 8400128:	180690fa 	slli	r3,r3,3
 840012c:	10c5883a 	add	r2,r2,r3
 8400130:	10c00017 	ldw	r3,0(r2)
 8400134:	008211f4 	movhi	r2,2119
 8400138:	10ab1704 	addi	r2,r2,-21412
 840013c:	e13ffd17 	ldw	r4,-12(fp)
 8400140:	200890fa 	slli	r4,r4,3
 8400144:	1105883a 	add	r2,r2,r4
 8400148:	10800104 	addi	r2,r2,4
 840014c:	10800017 	ldw	r2,0(r2)
 8400150:	1009883a 	mov	r4,r2
 8400154:	183ee83a 	callr	r3
#else
        alt_irq[i].handler(alt_irq[i].context, i); 
#endif
        break;
 8400158:	0001883a 	nop
#ifndef NIOS2_EIC_PRESENT
static ALT_INLINE alt_u32 ALT_ALWAYS_INLINE alt_irq_pending (void)
{
  alt_u32 active;

  NIOS2_READ_IPENDING (active);
 840015c:	0005313a 	rdctl	r2,ipending
 8400160:	e0bfff15 	stw	r2,-4(fp)

  return active;
 8400164:	e0bfff17 	ldw	r2,-4(fp)
 8400168:	00000706 	br	8400188 <alt_irq_handler+0xac>
      }
      mask <<= 1;
 840016c:	e0bffc17 	ldw	r2,-16(fp)
 8400170:	1085883a 	add	r2,r2,r2
 8400174:	e0bffc15 	stw	r2,-16(fp)
      i++;
 8400178:	e0bffd17 	ldw	r2,-12(fp)
 840017c:	10800044 	addi	r2,r2,1
 8400180:	e0bffd15 	stw	r2,-12(fp)

    } while (1);
 8400184:	003fe106 	br	840010c <__alt_data_end+0xfc40010c>

    active = alt_irq_pending ();
 8400188:	e0bffb15 	stw	r2,-20(fp)
    
  } while (active);
 840018c:	e0bffb17 	ldw	r2,-20(fp)
 8400190:	103fdb1e 	bne	r2,zero,8400100 <__alt_data_end+0xfc400100>

  /*
   * Notify the operating system that interrupt processing is complete.
   */ 

  ALT_OS_INT_EXIT();
 8400194:	0001883a 	nop
}
 8400198:	0001883a 	nop
 840019c:	e037883a 	mov	sp,fp
 84001a0:	dfc00117 	ldw	ra,4(sp)
 84001a4:	df000017 	ldw	fp,0(sp)
 84001a8:	dec00204 	addi	sp,sp,8
 84001ac:	f800283a 	ret

084001b0 <alt_instruction_exception_entry>:
 * that handler if it has been registered. Absent a handler, it will
 * break break or hang as discussed below.
 */
int 
alt_instruction_exception_entry (alt_u32 exception_pc)
{
 84001b0:	defffb04 	addi	sp,sp,-20
 84001b4:	dfc00415 	stw	ra,16(sp)
 84001b8:	df000315 	stw	fp,12(sp)
 84001bc:	df000304 	addi	fp,sp,12
 84001c0:	e13fff15 	stw	r4,-4(fp)
 * NIOS2_EXCEPTION_CAUSE_NOT_PRESENT. Your handling routine should
 * check the validity of the cause argument before proceeding.
 */
#ifdef NIOS2_HAS_EXTRA_EXCEPTION_INFO
  /* Get exception cause & "badaddr" */
  NIOS2_READ_EXCEPTION(cause);
 84001c4:	000531fa 	rdctl	r2,exception
 84001c8:	e0bffd15 	stw	r2,-12(fp)
  cause = ( (cause & NIOS2_EXCEPTION_REG_CAUSE_MASK) >>
 84001cc:	e0bffd17 	ldw	r2,-12(fp)
 84001d0:	10801f0c 	andi	r2,r2,124
 84001d4:	1004d0ba 	srli	r2,r2,2
 84001d8:	e0bffd15 	stw	r2,-12(fp)
              NIOS2_EXCEPTION_REG_CAUSE_OFST );

  NIOS2_READ_BADADDR(badaddr);
 84001dc:	0005333a 	rdctl	r2,badaddr
 84001e0:	e0bffe15 	stw	r2,-8(fp)
#else
  cause = NIOS2_EXCEPTION_CAUSE_NOT_PRESENT;
  badaddr = 0;
#endif /* NIOS2_HAS_EXTRA_EXCEPTION_INFO */

  if(alt_instruction_exception_handler) {
 84001e4:	d0adca17 	ldw	r2,-18648(gp)
 84001e8:	10000726 	beq	r2,zero,8400208 <alt_instruction_exception_entry+0x58>
     * Call handler. Its return value indicates whether the exception-causing
     * instruction should be re-issued. The code that called us,
     * alt_eceptions_entry.S, will look at this value and adjust the ea
     * register as necessary
     */
    return alt_instruction_exception_handler(cause, exception_pc, badaddr);
 84001ec:	d0adca17 	ldw	r2,-18648(gp)
 84001f0:	e0fffd17 	ldw	r3,-12(fp)
 84001f4:	e1bffe17 	ldw	r6,-8(fp)
 84001f8:	e17fff17 	ldw	r5,-4(fp)
 84001fc:	1809883a 	mov	r4,r3
 8400200:	103ee83a 	callr	r2
 8400204:	00000206 	br	8400210 <alt_instruction_exception_entry+0x60>
   *    (a peripheral which negates its interrupt output before its
   *    interrupt handler has been executed will cause spurious interrupts)
   */
  else {
#ifdef NIOS2_HAS_DEBUG_STUB
    NIOS2_BREAK();
 8400208:	003da03a 	break	0
      ;
#endif /* NIOS2_HAS_DEBUG_STUB */
  }

  /* We should not get here. Remove compiler warning. */
  return NIOS2_EXCEPTION_RETURN_REISSUE_INST;
 840020c:	0005883a 	mov	r2,zero
}
 8400210:	e037883a 	mov	sp,fp
 8400214:	dfc00117 	ldw	ra,4(sp)
 8400218:	df000017 	ldw	fp,0(sp)
 840021c:	dec00204 	addi	sp,sp,8
 8400220:	f800283a 	ret

Disassembly of section .text:

08400224 <_start>:

    /* Assume the data cache size is always a power of two. */
#if NIOS2_DCACHE_SIZE > 0x8000
    movhi r2, %hi(NIOS2_DCACHE_SIZE)
#else
    movui r2, NIOS2_DCACHE_SIZE
 8400224:	00820014 	movui	r2,2048
#endif

0:
    initd 0(r2)
 8400228:	10000033 	initd	0(r2)
#ifdef NIOS2_ECC_PRESENT
    addi r2, r2, -4
#else
    addi r2, r2, -NIOS2_DCACHE_LINE_SIZE
 840022c:	10bff804 	addi	r2,r2,-32
#endif
    bgt r2, zero, 0b
 8400230:	00bffd16 	blt	zero,r2,8400228 <__alt_data_end+0xfc400228>

    /*
     * Now that the caches are initialized, set up the stack pointer and global pointer.
     * The values provided by the linker are assumed to be correctly aligned.
     */
    movhi sp, %hi(__alt_stack_pointer)
 8400234:	06c30034 	movhi	sp,3072
    ori sp, sp, %lo(__alt_stack_pointer)
 8400238:	dec00014 	ori	sp,sp,0
    movhi gp, %hi(_gp)
 840023c:	06821174 	movhi	gp,2117
    ori gp, gp, %lo(_gp)
 8400240:	d682c214 	ori	gp,gp,2824
 */
#ifndef ALT_SIM_OPTIMIZE
    /* Log that the BSS is about to be cleared. */
    ALT_LOG_PUTS(alt_log_msg_bss)

    movhi r2, %hi(__bss_start)
 8400244:	00821134 	movhi	r2,2116
    ori r2, r2, %lo(__bss_start)
 8400248:	10b07e14 	ori	r2,r2,49656

    movhi r3, %hi(__bss_end)
 840024c:	00c211b4 	movhi	r3,2118
    ori r3, r3, %lo(__bss_end)
 8400250:	18eb5714 	ori	r3,r3,44380

    beq r2, r3, 1f
 8400254:	10c00326 	beq	r2,r3,8400264 <_start+0x40>

0:
    stw zero, (r2)
 8400258:	10000015 	stw	zero,0(r2)
    addi r2, r2, 4
 840025c:	10800104 	addi	r2,r2,4
    bltu r2, r3, 0b
 8400260:	10fffd36 	bltu	r2,r3,8400258 <__alt_data_end+0xfc400258>
     * section aren't defined until alt_load() has been called).
     */
    mov   et, zero
#endif

    call alt_load
 8400264:	841997c0 	call	841997c <alt_load>

    /* Log that alt_main is about to be called. */
    ALT_LOG_PUTS(alt_log_msg_alt_main)

    /* Call the C entry point. It should never return. */
    call alt_main
 8400268:	8419b100 	call	8419b10 <alt_main>

0840026c <alt_after_alt_main>:

    /* Wait in infinite loop in case alt_main does return. */
alt_after_alt_main:
    br alt_after_alt_main
 840026c:	003fff06 	br	840026c <__alt_data_end+0xfc40026c>

08400270 <main>:
#include "system.h"

void GUI_VPG(alt_video_display *pDisplay, TOUCH_HANDLE *pTouch);


int main() {
 8400270:	defffe04 	addi	sp,sp,-8
 8400274:	dfc00115 	stw	ra,4(sp)
 8400278:	df000015 	stw	fp,0(sp)
 840027c:	d839883a 	mov	fp,sp
 8400280:	023fffb4 	movhi	r8,65534
 8400284:	42048904 	addi	r8,r8,4644
 8400288:	da37883a 	add	sp,sp,r8
	uint8_t img_ready=0;
 840028c:	00bfffb4 	movhi	r2,65534
 8400290:	10848b04 	addi	r2,r2,4652
 8400294:	1705883a 	add	r2,r2,fp
 8400298:	10000005 	stb	zero,0(r2)
	uint8_t result;
	MNIST_Image img;

    Layer outputLayer;

    initLayer(&outputLayer);
 840029c:	00ffffb4 	movhi	r3,65534
 84002a0:	18c55304 	addi	r3,r3,5452
 84002a4:	e0c5883a 	add	r2,fp,r3
 84002a8:	1009883a 	mov	r4,r2
 84002ac:	84005f40 	call	84005f4 <initLayer>

    TOUCH_HANDLE *pTouch;
    alt_video_display Display;
    int delay , count ;
    while (count<10) {				//aspetta 2000000 cicli = 40 ms
 84002b0:	00001e06 	br	840032c <main+0xbc>
        delay=0;
 84002b4:	013fffb4 	movhi	r4,65534
 84002b8:	21048904 	addi	r4,r4,4644
 84002bc:	2709883a 	add	r4,r4,fp
 84002c0:	20000015 	stw	zero,0(r4)
        while (delay <200000)
 84002c4:	00000906 	br	84002ec <main+0x7c>
        	delay++;
 84002c8:	00ffffb4 	movhi	r3,65534
 84002cc:	18c48904 	addi	r3,r3,4644
 84002d0:	1f07883a 	add	r3,r3,fp
 84002d4:	18800017 	ldw	r2,0(r3)
 84002d8:	10800044 	addi	r2,r2,1
 84002dc:	013fffb4 	movhi	r4,65534
 84002e0:	21048904 	addi	r4,r4,4644
 84002e4:	2709883a 	add	r4,r4,fp
 84002e8:	20800015 	stw	r2,0(r4)
    TOUCH_HANDLE *pTouch;
    alt_video_display Display;
    int delay , count ;
    while (count<10) {				//aspetta 2000000 cicli = 40 ms
        delay=0;
        while (delay <200000)
 84002ec:	00bfffb4 	movhi	r2,65534
 84002f0:	10848904 	addi	r2,r2,4644
 84002f4:	1705883a 	add	r2,r2,fp
 84002f8:	10c00017 	ldw	r3,0(r2)
 84002fc:	008000f4 	movhi	r2,3
 8400300:	10834fc4 	addi	r2,r2,3391
 8400304:	10fff00e 	bge	r2,r3,84002c8 <__alt_data_end+0xfc4002c8>
        	delay++;
        count++;
 8400308:	00ffffb4 	movhi	r3,65534
 840030c:	18c48a04 	addi	r3,r3,4648
 8400310:	1f07883a 	add	r3,r3,fp
 8400314:	18800017 	ldw	r2,0(r3)
 8400318:	10800044 	addi	r2,r2,1
 840031c:	013fffb4 	movhi	r4,65534
 8400320:	21048a04 	addi	r4,r4,4648
 8400324:	2709883a 	add	r4,r4,fp
 8400328:	20800015 	stw	r2,0(r4)
    initLayer(&outputLayer);

    TOUCH_HANDLE *pTouch;
    alt_video_display Display;
    int delay , count ;
    while (count<10) {				//aspetta 2000000 cicli = 40 ms
 840032c:	00ffffb4 	movhi	r3,65534
 8400330:	18c48a04 	addi	r3,r3,4648
 8400334:	1f07883a 	add	r3,r3,fp
 8400338:	18800017 	ldw	r2,0(r3)
 840033c:	10800290 	cmplti	r2,r2,10
 8400340:	103fdc1e 	bne	r2,zero,84002b4 <__alt_data_end+0xfc4002b4>
        while (delay <200000)
        	delay++;
        count++;
    }

   const bool bVPG = ((IORD(PUSH_BUTTON_BASE, 0x00) & 0x01) == 0x00)?TRUE:FALSE;
 8400344:	00804034 	movhi	r2,256
 8400348:	10801c04 	addi	r2,r2,112
 840034c:	10800037 	ldwio	r2,0(r2)
 8400350:	1080004c 	andi	r2,r2,1
 8400354:	1005003a 	cmpeq	r2,r2,zero
 8400358:	10803fcc 	andi	r2,r2,255
 840035c:	013fffb4 	movhi	r4,65534
 8400360:	21048c04 	addi	r4,r4,4656
 8400364:	2709883a 	add	r4,r4,fp
 8400368:	20800015 	stw	r2,0(r4)

   // init touch
   pTouch = Touch_Init(TOUCH_PANEL_SPI_BASE, TOUCH_PANEL_PEN_IRQ_N_BASE, TOUCH_PANEL_PEN_IRQ_N_IRQ);
 840036c:	018000c4 	movi	r6,3
 8400370:	01404034 	movhi	r5,256
 8400374:	29401004 	addi	r5,r5,64
 8400378:	01004034 	movhi	r4,256
 840037c:	84075a40 	call	84075a4 <Touch_Init>
 8400380:	00ffffb4 	movhi	r3,65534
 8400384:	18c48d04 	addi	r3,r3,4660
 8400388:	1f07883a 	add	r3,r3,fp
 840038c:	18800015 	stw	r2,0(r3)
   if (!pTouch)
 8400390:	013fffb4 	movhi	r4,65534
 8400394:	21048d04 	addi	r4,r4,4660
 8400398:	2709883a 	add	r4,r4,fp
 840039c:	20800017 	ldw	r2,0(r4)
 84003a0:	1000041e 	bne	r2,zero,84003b4 <main+0x144>
	   printf("Failed to init touch\r\n");
 84003a4:	010210f4 	movhi	r4,2115
 84003a8:	21162904 	addi	r4,r4,22692
 84003ac:	840c5cc0 	call	840c5cc <puts>
 84003b0:	00000306 	br	84003c0 <main+0x150>
   else
	   printf("Init touch successfully\r\n");
 84003b4:	010210f4 	movhi	r4,2115
 84003b8:	21162f04 	addi	r4,r4,22716
 84003bc:	840c5cc0 	call	840c5cc <puts>


   // init LCD
   LCD_Init();
 84003c0:	840238c0 	call	840238c <LCD_Init>
   LCD_Clear(0X0000);
 84003c4:	0009883a 	mov	r4,zero
 84003c8:	84022a80 	call	84022a8 <LCD_Clear>

   Display.interlace = 0;
 84003cc:	008000b4 	movhi	r2,2
 84003d0:	10bb7204 	addi	r2,r2,-4664
 84003d4:	00ffffb4 	movhi	r3,65534
 84003d8:	18c48904 	addi	r3,r3,4644
 84003dc:	1f07883a 	add	r3,r3,fp
 84003e0:	1885883a 	add	r2,r3,r2
 84003e4:	10000415 	stw	zero,16(r2)
   Display.bytes_per_pixel = 2;
 84003e8:	008000b4 	movhi	r2,2
 84003ec:	10bb7204 	addi	r2,r2,-4664
 84003f0:	013fffb4 	movhi	r4,65534
 84003f4:	21048904 	addi	r4,r4,4644
 84003f8:	2709883a 	add	r4,r4,fp
 84003fc:	2085883a 	add	r2,r4,r2
 8400400:	00c00084 	movi	r3,2
 8400404:	10c00315 	stw	r3,12(r2)
   Display.color_depth = 16;
 8400408:	008000b4 	movhi	r2,2
 840040c:	10bb7204 	addi	r2,r2,-4664
 8400410:	00ffffb4 	movhi	r3,65534
 8400414:	18c48904 	addi	r3,r3,4644
 8400418:	1f07883a 	add	r3,r3,fp
 840041c:	1885883a 	add	r2,r3,r2
 8400420:	00c00404 	movi	r3,16
 8400424:	10c00015 	stw	r3,0(r2)
   Display.height = SCREEN_HEIGHT;
 8400428:	008000b4 	movhi	r2,2
 840042c:	10bb7204 	addi	r2,r2,-4664
 8400430:	013fffb4 	movhi	r4,65534
 8400434:	21048904 	addi	r4,r4,4644
 8400438:	2709883a 	add	r4,r4,fp
 840043c:	2085883a 	add	r2,r4,r2
 8400440:	00c05004 	movi	r3,320
 8400444:	10c00215 	stw	r3,8(r2)
   Display.width = SCREEN_WIDTH;
 8400448:	008000b4 	movhi	r2,2
 840044c:	10bb7204 	addi	r2,r2,-4664
 8400450:	00ffffb4 	movhi	r3,65534
 8400454:	18c48904 	addi	r3,r3,4644
 8400458:	1f07883a 	add	r3,r3,fp
 840045c:	1885883a 	add	r2,r3,r2
 8400460:	00c03c04 	movi	r3,240
 8400464:	10c00115 	stw	r3,4(r2)

   // run demo
   if (bVPG)
 8400468:	013fffb4 	movhi	r4,65534
 840046c:	21048c04 	addi	r4,r4,4656
 8400470:	2709883a 	add	r4,r4,fp
 8400474:	20800017 	ldw	r2,0(r4)
 8400478:	10000d26 	beq	r2,zero,84004b0 <main+0x240>
	   GUI_VPG(&Display, pTouch); // enter vpg mode when users press KEY0
 840047c:	008000b4 	movhi	r2,2
 8400480:	10bb7204 	addi	r2,r2,-4664
 8400484:	00ffffb4 	movhi	r3,65534
 8400488:	18c48904 	addi	r3,r3,4644
 840048c:	1f07883a 	add	r3,r3,fp
 8400490:	1885883a 	add	r2,r3,r2
 8400494:	013fffb4 	movhi	r4,65534
 8400498:	21048d04 	addi	r4,r4,4660
 840049c:	2709883a 	add	r4,r4,fp
 84004a0:	21400017 	ldw	r5,0(r4)
 84004a4:	1009883a 	mov	r4,r2
 84004a8:	84041140 	call	8404114 <GUI_VPG>
 84004ac:	00000c06 	br	84004e0 <main+0x270>
   else
	   GUI(&Display, pTouch);
 84004b0:	008000b4 	movhi	r2,2
 84004b4:	10bb7204 	addi	r2,r2,-4664
 84004b8:	00ffffb4 	movhi	r3,65534
 84004bc:	18c48904 	addi	r3,r3,4644
 84004c0:	1f07883a 	add	r3,r3,fp
 84004c4:	1885883a 	add	r2,r3,r2
 84004c8:	013fffb4 	movhi	r4,65534
 84004cc:	21048d04 	addi	r4,r4,4660
 84004d0:	2709883a 	add	r4,r4,fp
 84004d4:	21400017 	ldw	r5,0(r4)
 84004d8:	1009883a 	mov	r4,r2
 84004dc:	84036e80 	call	84036e8 <GUI>

   while(1){
		if(img_ready)
 84004e0:	00ffffb4 	movhi	r3,65534
 84004e4:	18c48b04 	addi	r3,r3,4652
 84004e8:	1f07883a 	add	r3,r3,fp
 84004ec:	18800003 	ldbu	r2,0(r3)
 84004f0:	103ffb26 	beq	r2,zero,84004e0 <__alt_data_end+0xfc4004e0>
			 result=testLayer(&outputLayer, &img);
 84004f4:	013fffb4 	movhi	r4,65534
 84004f8:	21048e44 	addi	r4,r4,4665
 84004fc:	e107883a 	add	r3,fp,r4
 8400500:	013fffb4 	movhi	r4,65534
 8400504:	21055304 	addi	r4,r4,5452
 8400508:	e105883a 	add	r2,fp,r4
 840050c:	180b883a 	mov	r5,r3
 8400510:	1009883a 	mov	r4,r2
 8400514:	8400bc00 	call	8400bc0 <testLayer>
 8400518:	00ffffb4 	movhi	r3,65534
 840051c:	18c48e04 	addi	r3,r3,4664
 8400520:	1f07883a 	add	r3,r3,fp
 8400524:	18800005 	stb	r2,0(r3)
   }
 8400528:	003fed06 	br	84004e0 <__alt_data_end+0xfc4004e0>

0840052c <getTargetOutput>:

/**
 * @details Returns an output vector with targetIndex set to 1, all others to 0
 */

Vector getTargetOutput(int targetIndex){
 840052c:	defff204 	addi	sp,sp,-56
 8400530:	df000d15 	stw	fp,52(sp)
 8400534:	df000d04 	addi	fp,sp,52
 8400538:	e13ffe15 	stw	r4,-8(fp)
 840053c:	e17fff15 	stw	r5,-4(fp)
    Vector v;
    for (int i=0; i<NUMBER_OF_OUTPUT_CELLS; i++){
 8400540:	e03ff315 	stw	zero,-52(fp)
 8400544:	00000e06 	br	8400580 <getTargetOutput+0x54>
        v.val[i] = (i==targetIndex) ? 1 : 0;
 8400548:	e0fff317 	ldw	r3,-52(fp)
 840054c:	e0bfff17 	ldw	r2,-4(fp)
 8400550:	1885003a 	cmpeq	r2,r3,r2
 8400554:	10c03fcc 	andi	r3,r2,255
 8400558:	e0bff317 	ldw	r2,-52(fp)
 840055c:	1085883a 	add	r2,r2,r2
 8400560:	1085883a 	add	r2,r2,r2
 8400564:	e13ff304 	addi	r4,fp,-52
 8400568:	2085883a 	add	r2,r4,r2
 840056c:	10800104 	addi	r2,r2,4
 8400570:	10c00015 	stw	r3,0(r2)
 * @details Returns an output vector with targetIndex set to 1, all others to 0
 */

Vector getTargetOutput(int targetIndex){
    Vector v;
    for (int i=0; i<NUMBER_OF_OUTPUT_CELLS; i++){
 8400574:	e0bff317 	ldw	r2,-52(fp)
 8400578:	10800044 	addi	r2,r2,1
 840057c:	e0bff315 	stw	r2,-52(fp)
 8400580:	e0bff317 	ldw	r2,-52(fp)
 8400584:	10800290 	cmplti	r2,r2,10
 8400588:	103fef1e 	bne	r2,zero,8400548 <__alt_data_end+0xfc400548>
        v.val[i] = (i==targetIndex) ? 1 : 0;
    }
    return v;
 840058c:	e0bffe17 	ldw	r2,-8(fp)
 8400590:	e0fff417 	ldw	r3,-48(fp)
 8400594:	10c00015 	stw	r3,0(r2)
 8400598:	e0fff517 	ldw	r3,-44(fp)
 840059c:	10c00115 	stw	r3,4(r2)
 84005a0:	e0fff617 	ldw	r3,-40(fp)
 84005a4:	10c00215 	stw	r3,8(r2)
 84005a8:	e0fff717 	ldw	r3,-36(fp)
 84005ac:	10c00315 	stw	r3,12(r2)
 84005b0:	e0fff817 	ldw	r3,-32(fp)
 84005b4:	10c00415 	stw	r3,16(r2)
 84005b8:	e0fff917 	ldw	r3,-28(fp)
 84005bc:	10c00515 	stw	r3,20(r2)
 84005c0:	e0fffa17 	ldw	r3,-24(fp)
 84005c4:	10c00615 	stw	r3,24(r2)
 84005c8:	e0fffb17 	ldw	r3,-20(fp)
 84005cc:	10c00715 	stw	r3,28(r2)
 84005d0:	e0fffc17 	ldw	r3,-16(fp)
 84005d4:	10c00815 	stw	r3,32(r2)
 84005d8:	e0fffd17 	ldw	r3,-12(fp)
 84005dc:	10c00915 	stw	r3,36(r2)
}
 84005e0:	e0bffe17 	ldw	r2,-8(fp)
 84005e4:	e037883a 	mov	sp,fp
 84005e8:	df000017 	ldw	fp,0(sp)
 84005ec:	dec00104 	addi	sp,sp,4
 84005f0:	f800283a 	ret

084005f4 <initLayer>:
 * @attention It actually makes no difference whether the weights are
 * initialized to a constant (e.g. 0.5) or to a random number.
 * The result (85% success rate) will not change significantly.
 */

void initLayer(Layer *l){
 84005f4:	defffc04 	addi	sp,sp,-16
 84005f8:	df000315 	stw	fp,12(sp)
 84005fc:	df000304 	addi	fp,sp,12
 8400600:	e13fff15 	stw	r4,-4(fp)
    
    for (int o=0; o<NUMBER_OF_OUTPUT_CELLS; o++){
 8400604:	e03ffd15 	stw	zero,-12(fp)
 8400608:	00002e06 	br	84006c4 <initLayer+0xd0>
        
        for (int i=0; i<NUMBER_OF_INPUT_CELLS; i++){
 840060c:	e03ffe15 	stw	zero,-8(fp)
 8400610:	00001806 	br	8400674 <initLayer+0x80>
            l->cell[o].input[i]=0;
 8400614:	e0ffff17 	ldw	r3,-4(fp)
 8400618:	e0bffd17 	ldw	r2,-12(fp)
 840061c:	110188a4 	muli	r4,r2,1570
 8400620:	e0bffe17 	ldw	r2,-8(fp)
 8400624:	2085883a 	add	r2,r4,r2
 8400628:	100490fa 	slli	r2,r2,3
 840062c:	1885883a 	add	r2,r3,r2
 8400630:	10000015 	stw	zero,0(r2)
 8400634:	10000115 	stw	zero,4(r2)
            l->cell[o].weight[i]=WEIGHTS[o*NUMBER_OF_INPUT_CELLS + i];
 8400638:	0005883a 	mov	r2,zero
 840063c:	0007883a 	mov	r3,zero
 8400640:	e17fff17 	ldw	r5,-4(fp)
 8400644:	e13ffd17 	ldw	r4,-12(fp)
 8400648:	218188a4 	muli	r6,r4,1570
 840064c:	e13ffe17 	ldw	r4,-8(fp)
 8400650:	3109883a 	add	r4,r6,r4
 8400654:	2100c404 	addi	r4,r4,784
 8400658:	200890fa 	slli	r4,r4,3
 840065c:	2909883a 	add	r4,r5,r4
 8400660:	20800015 	stw	r2,0(r4)
 8400664:	20c00115 	stw	r3,4(r4)

void initLayer(Layer *l){
    
    for (int o=0; o<NUMBER_OF_OUTPUT_CELLS; o++){
        
        for (int i=0; i<NUMBER_OF_INPUT_CELLS; i++){
 8400668:	e0bffe17 	ldw	r2,-8(fp)
 840066c:	10800044 	addi	r2,r2,1
 8400670:	e0bffe15 	stw	r2,-8(fp)
 8400674:	e0bffe17 	ldw	r2,-8(fp)
 8400678:	1080c410 	cmplti	r2,r2,784
 840067c:	103fe51e 	bne	r2,zero,8400614 <__alt_data_end+0xfc400614>
            l->cell[o].input[i]=0;
            l->cell[o].weight[i]=WEIGHTS[o*NUMBER_OF_INPUT_CELLS + i];
        }
        
        l->cell[o].output = 0;
 8400680:	e0ffff17 	ldw	r3,-4(fp)
 8400684:	e0bffd17 	ldw	r2,-12(fp)
 8400688:	108c4424 	muli	r2,r2,12560
 840068c:	1885883a 	add	r2,r3,r2
 8400690:	108c4004 	addi	r2,r2,12544
 8400694:	10000015 	stw	zero,0(r2)
 8400698:	10000115 	stw	zero,4(r2)
        l->cell[o].bias = 0;
 840069c:	e0ffff17 	ldw	r3,-4(fp)
 84006a0:	e0bffd17 	ldw	r2,-12(fp)
 84006a4:	108c4424 	muli	r2,r2,12560
 84006a8:	1885883a 	add	r2,r3,r2
 84006ac:	108c4204 	addi	r2,r2,12552
 84006b0:	10000015 	stw	zero,0(r2)
 84006b4:	10000115 	stw	zero,4(r2)
 * The result (85% success rate) will not change significantly.
 */

void initLayer(Layer *l){
    
    for (int o=0; o<NUMBER_OF_OUTPUT_CELLS; o++){
 84006b8:	e0bffd17 	ldw	r2,-12(fp)
 84006bc:	10800044 	addi	r2,r2,1
 84006c0:	e0bffd15 	stw	r2,-12(fp)
 84006c4:	e0bffd17 	ldw	r2,-12(fp)
 84006c8:	10800290 	cmplti	r2,r2,10
 84006cc:	103fcf1e 	bne	r2,zero,840060c <__alt_data_end+0xfc40060c>
        }
        
        l->cell[o].output = 0;
        l->cell[o].bias = 0;
    }
}
 84006d0:	0001883a 	nop
 84006d4:	e037883a 	mov	sp,fp
 84006d8:	df000017 	ldw	fp,0(sp)
 84006dc:	dec00104 	addi	sp,sp,4
 84006e0:	f800283a 	ret

084006e4 <getLayerPrediction>:
/**
 * @details The output prediction is derived by simply sorting all output values
 * and using the index (=0-9 number) of the highest value as the prediction.
 */

uint8_t getLayerPrediction(Layer *l){
 84006e4:	defff904 	addi	sp,sp,-28
 84006e8:	dfc00615 	stw	ra,24(sp)
 84006ec:	df000515 	stw	fp,20(sp)
 84006f0:	df000504 	addi	fp,sp,20
 84006f4:	e13fff15 	stw	r4,-4(fp)
    
    double maxOut = 0;
 84006f8:	e03ffb15 	stw	zero,-20(fp)
 84006fc:	e03ffc15 	stw	zero,-16(fp)
    uint8_t maxInd = 0;
 8400700:	e03ffd05 	stb	zero,-12(fp)
    
    for (int i=0; i<NUMBER_OF_OUTPUT_CELLS; i++){
 8400704:	e03ffe15 	stw	zero,-8(fp)
 8400708:	00001b06 	br	8400778 <getLayerPrediction+0x94>
        
        if (l->cell[i].output > maxOut){
 840070c:	e0ffff17 	ldw	r3,-4(fp)
 8400710:	e0bffe17 	ldw	r2,-8(fp)
 8400714:	108c4424 	muli	r2,r2,12560
 8400718:	1885883a 	add	r2,r3,r2
 840071c:	110c4004 	addi	r4,r2,12544
 8400720:	20800017 	ldw	r2,0(r4)
 8400724:	20c00117 	ldw	r3,4(r4)
 8400728:	e1bffb17 	ldw	r6,-20(fp)
 840072c:	e1fffc17 	ldw	r7,-16(fp)
 8400730:	1009883a 	mov	r4,r2
 8400734:	180b883a 	mov	r5,r3
 8400738:	84097780 	call	8409778 <__gedf2>
 840073c:	00800b0e 	bge	zero,r2,840076c <getLayerPrediction+0x88>
            maxOut = l->cell[i].output;
 8400740:	e0ffff17 	ldw	r3,-4(fp)
 8400744:	e0bffe17 	ldw	r2,-8(fp)
 8400748:	108c4424 	muli	r2,r2,12560
 840074c:	1885883a 	add	r2,r3,r2
 8400750:	108c4004 	addi	r2,r2,12544
 8400754:	10c00017 	ldw	r3,0(r2)
 8400758:	e0fffb15 	stw	r3,-20(fp)
 840075c:	10800117 	ldw	r2,4(r2)
 8400760:	e0bffc15 	stw	r2,-16(fp)
            maxInd = i;
 8400764:	e0bffe17 	ldw	r2,-8(fp)
 8400768:	e0bffd05 	stb	r2,-12(fp)
uint8_t getLayerPrediction(Layer *l){
    
    double maxOut = 0;
    uint8_t maxInd = 0;
    
    for (int i=0; i<NUMBER_OF_OUTPUT_CELLS; i++){
 840076c:	e0bffe17 	ldw	r2,-8(fp)
 8400770:	10800044 	addi	r2,r2,1
 8400774:	e0bffe15 	stw	r2,-8(fp)
 8400778:	e0bffe17 	ldw	r2,-8(fp)
 840077c:	10800290 	cmplti	r2,r2,10
 8400780:	103fe21e 	bne	r2,zero,840070c <__alt_data_end+0xfc40070c>
            maxOut = l->cell[i].output;
            maxInd = i;
        }
    }
    
    return maxInd;
 8400784:	e0bffd03 	ldbu	r2,-12(fp)
    
}
 8400788:	e037883a 	mov	sp,fp
 840078c:	dfc00117 	ldw	ra,4(sp)
 8400790:	df000017 	ldw	fp,0(sp)
 8400794:	dec00204 	addi	sp,sp,8
 8400798:	f800283a 	ret

0840079c <setCellInput>:
 * of a given MNIST image, setting input vector cells to [0,1]
 * based on the pixels of the image.
 * Scalar pixel intensity [=grey-scale] is ignored, only 0 or 1 [=black-white].
 */

void setCellInput(Cell *c, MNIST_Image *img){
 840079c:	defffc04 	addi	sp,sp,-16
 84007a0:	df000315 	stw	fp,12(sp)
 84007a4:	df000304 	addi	fp,sp,12
 84007a8:	e13ffe15 	stw	r4,-8(fp)
 84007ac:	e17fff15 	stw	r5,-4(fp)
    
    for (int i=0; i<NUMBER_OF_INPUT_CELLS; i++){
 84007b0:	e03ffd15 	stw	zero,-12(fp)
 84007b4:	00001406 	br	8400808 <setCellInput+0x6c>
        c->input[i] = img->pixel[i] ? 1 : 0;
 84007b8:	e0ffff17 	ldw	r3,-4(fp)
 84007bc:	e0bffd17 	ldw	r2,-12(fp)
 84007c0:	1885883a 	add	r2,r3,r2
 84007c4:	10800003 	ldbu	r2,0(r2)
 84007c8:	10803fcc 	andi	r2,r2,255
 84007cc:	10000326 	beq	r2,zero,84007dc <setCellInput+0x40>
 84007d0:	0005883a 	mov	r2,zero
 84007d4:	00cffc34 	movhi	r3,16368
 84007d8:	00000206 	br	84007e4 <setCellInput+0x48>
 84007dc:	0005883a 	mov	r2,zero
 84007e0:	0007883a 	mov	r3,zero
 84007e4:	e17ffe17 	ldw	r5,-8(fp)
 84007e8:	e13ffd17 	ldw	r4,-12(fp)
 84007ec:	200890fa 	slli	r4,r4,3
 84007f0:	2909883a 	add	r4,r5,r4
 84007f4:	20800015 	stw	r2,0(r4)
 84007f8:	20c00115 	stw	r3,4(r4)
 * Scalar pixel intensity [=grey-scale] is ignored, only 0 or 1 [=black-white].
 */

void setCellInput(Cell *c, MNIST_Image *img){
    
    for (int i=0; i<NUMBER_OF_INPUT_CELLS; i++){
 84007fc:	e0bffd17 	ldw	r2,-12(fp)
 8400800:	10800044 	addi	r2,r2,1
 8400804:	e0bffd15 	stw	r2,-12(fp)
 8400808:	e0bffd17 	ldw	r2,-12(fp)
 840080c:	1080c410 	cmplti	r2,r2,784
 8400810:	103fe91e 	bne	r2,zero,84007b8 <__alt_data_end+0xfc4007b8>
        c->input[i] = img->pixel[i] ? 1 : 0;
    }
}
 8400814:	0001883a 	nop
 8400818:	e037883a 	mov	sp,fp
 840081c:	df000017 	ldw	fp,0(sp)
 8400820:	dec00104 	addi	sp,sp,4
 8400824:	f800283a 	ret

08400828 <calcCellOutput>:
/**
 * @details Calculates a cell's output by suming all input-weight-products
 * and normalizes to [0-1].
 */

void calcCellOutput(Cell *c){
 8400828:	defffa04 	addi	sp,sp,-24
 840082c:	dfc00515 	stw	ra,20(sp)
 8400830:	df000415 	stw	fp,16(sp)
 8400834:	dc400315 	stw	r17,12(sp)
 8400838:	dc000215 	stw	r16,8(sp)
 840083c:	df000404 	addi	fp,sp,16
 8400840:	e13ffd15 	stw	r4,-12(fp)
    
    c->output=0;
 8400844:	e0bffd17 	ldw	r2,-12(fp)
 8400848:	100c4015 	stw	zero,12544(r2)
 840084c:	100c4115 	stw	zero,12548(r2)
    
    for (int i=0; i<NUMBER_OF_INPUT_CELLS; i++){
 8400850:	e03ffc15 	stw	zero,-16(fp)
 8400854:	00002806 	br	84008f8 <calcCellOutput+0xd0>
        c->output += c->input[i] * c->weight[i];
 8400858:	e0bffd17 	ldw	r2,-12(fp)
 840085c:	140c4017 	ldw	r16,12544(r2)
 8400860:	144c4117 	ldw	r17,12548(r2)
 8400864:	e0fffd17 	ldw	r3,-12(fp)
 8400868:	e0bffc17 	ldw	r2,-16(fp)
 840086c:	100490fa 	slli	r2,r2,3
 8400870:	1889883a 	add	r4,r3,r2
 8400874:	20800017 	ldw	r2,0(r4)
 8400878:	20c00117 	ldw	r3,4(r4)
 840087c:	e17ffd17 	ldw	r5,-12(fp)
 8400880:	e13ffc17 	ldw	r4,-16(fp)
 8400884:	2100c404 	addi	r4,r4,784
 8400888:	200890fa 	slli	r4,r4,3
 840088c:	290d883a 	add	r6,r5,r4
 8400890:	31000017 	ldw	r4,0(r6)
 8400894:	31400117 	ldw	r5,4(r6)
 8400898:	200d883a 	mov	r6,r4
 840089c:	280f883a 	mov	r7,r5
 84008a0:	1009883a 	mov	r4,r2
 84008a4:	180b883a 	mov	r5,r3
 84008a8:	84099480 	call	8409948 <__muldf3>
 84008ac:	1009883a 	mov	r4,r2
 84008b0:	180b883a 	mov	r5,r3
 84008b4:	2005883a 	mov	r2,r4
 84008b8:	2807883a 	mov	r3,r5
 84008bc:	100d883a 	mov	r6,r2
 84008c0:	180f883a 	mov	r7,r3
 84008c4:	8009883a 	mov	r4,r16
 84008c8:	880b883a 	mov	r5,r17
 84008cc:	84085e40 	call	84085e4 <__adddf3>
 84008d0:	1009883a 	mov	r4,r2
 84008d4:	180b883a 	mov	r5,r3
 84008d8:	2005883a 	mov	r2,r4
 84008dc:	2807883a 	mov	r3,r5
 84008e0:	e13ffd17 	ldw	r4,-12(fp)
 84008e4:	208c4015 	stw	r2,12544(r4)
 84008e8:	20cc4115 	stw	r3,12548(r4)

void calcCellOutput(Cell *c){
    
    c->output=0;
    
    for (int i=0; i<NUMBER_OF_INPUT_CELLS; i++){
 84008ec:	e0bffc17 	ldw	r2,-16(fp)
 84008f0:	10800044 	addi	r2,r2,1
 84008f4:	e0bffc15 	stw	r2,-16(fp)
 84008f8:	e0bffc17 	ldw	r2,-16(fp)
 84008fc:	1080c410 	cmplti	r2,r2,784
 8400900:	103fd51e 	bne	r2,zero,8400858 <__alt_data_end+0xfc400858>
        c->output += c->input[i] * c->weight[i];
    }
    
    c->output /= NUMBER_OF_INPUT_CELLS;             // normalize output (0-1)
 8400904:	e13ffd17 	ldw	r4,-12(fp)
 8400908:	208c4017 	ldw	r2,12544(r4)
 840090c:	20cc4117 	ldw	r3,12548(r4)
 8400910:	000d883a 	mov	r6,zero
 8400914:	01d02274 	movhi	r7,16521
 8400918:	39e00004 	addi	r7,r7,-32768
 840091c:	1009883a 	mov	r4,r2
 8400920:	180b883a 	mov	r5,r3
 8400924:	8408e900 	call	8408e90 <__divdf3>
 8400928:	1009883a 	mov	r4,r2
 840092c:	180b883a 	mov	r5,r3
 8400930:	2005883a 	mov	r2,r4
 8400934:	2807883a 	mov	r3,r5
 8400938:	e13ffd17 	ldw	r4,-12(fp)
 840093c:	208c4015 	stw	r2,12544(r4)
 8400940:	20cc4115 	stw	r3,12548(r4)
}
 8400944:	0001883a 	nop
 8400948:	e6fffe04 	addi	sp,fp,-8
 840094c:	dfc00317 	ldw	ra,12(sp)
 8400950:	df000217 	ldw	fp,8(sp)
 8400954:	dc400117 	ldw	r17,4(sp)
 8400958:	dc000017 	ldw	r16,0(sp)
 840095c:	dec00404 	addi	sp,sp,16
 8400960:	f800283a 	ret

08400964 <getCellError>:

/**
 * @details Returns the difference between a target value and the cell's ouput
 */

double getCellError(Cell *c, int target){
 8400964:	defffa04 	addi	sp,sp,-24
 8400968:	dfc00515 	stw	ra,20(sp)
 840096c:	df000415 	stw	fp,16(sp)
 8400970:	df000404 	addi	fp,sp,16
 8400974:	e13ffe15 	stw	r4,-8(fp)
 8400978:	e17fff15 	stw	r5,-4(fp)

    double err = target - c->output;
 840097c:	e13fff17 	ldw	r4,-4(fp)
 8400980:	840a9dc0 	call	840a9dc <__floatsidf>
 8400984:	1011883a 	mov	r8,r2
 8400988:	1813883a 	mov	r9,r3
 840098c:	e13ffe17 	ldw	r4,-8(fp)
 8400990:	208c4017 	ldw	r2,12544(r4)
 8400994:	20cc4117 	ldw	r3,12548(r4)
 8400998:	100d883a 	mov	r6,r2
 840099c:	180f883a 	mov	r7,r3
 84009a0:	4009883a 	mov	r4,r8
 84009a4:	480b883a 	mov	r5,r9
 84009a8:	840a0600 	call	840a060 <__subdf3>
 84009ac:	1009883a 	mov	r4,r2
 84009b0:	180b883a 	mov	r5,r3
 84009b4:	e13ffc15 	stw	r4,-16(fp)
 84009b8:	e17ffd15 	stw	r5,-12(fp)

    return err;
 84009bc:	e0bffc17 	ldw	r2,-16(fp)
 84009c0:	e0fffd17 	ldw	r3,-12(fp)
 84009c4:	1009883a 	mov	r4,r2
 84009c8:	180b883a 	mov	r5,r3
}
 84009cc:	2005883a 	mov	r2,r4
 84009d0:	2807883a 	mov	r3,r5
 84009d4:	e037883a 	mov	sp,fp
 84009d8:	dfc00117 	ldw	ra,4(sp)
 84009dc:	df000017 	ldw	fp,0(sp)
 84009e0:	dec00204 	addi	sp,sp,8
 84009e4:	f800283a 	ret

084009e8 <updateCellWeights>:

/**
 * @details Updates a cell's weights based on given error and LEARNING_RATE
 */

void updateCellWeights(Cell *c, double err){
 84009e8:	defff804 	addi	sp,sp,-32
 84009ec:	dfc00715 	stw	ra,28(sp)
 84009f0:	df000615 	stw	fp,24(sp)
 84009f4:	dc400515 	stw	r17,20(sp)
 84009f8:	dc000415 	stw	r16,16(sp)
 84009fc:	df000604 	addi	fp,sp,24
 8400a00:	e13ffb15 	stw	r4,-20(fp)
 8400a04:	e17ffc15 	stw	r5,-16(fp)
 8400a08:	e1bffd15 	stw	r6,-12(fp)
    
    for (int i=0; i<NUMBER_OF_INPUT_CELLS; i++){
 8400a0c:	e03ffa15 	stw	zero,-24(fp)
 8400a10:	00003406 	br	8400ae4 <updateCellWeights+0xfc>
        c->weight[i] += LEARNING_RATE * c->input[i] * err;
 8400a14:	e0fffb17 	ldw	r3,-20(fp)
 8400a18:	e0bffa17 	ldw	r2,-24(fp)
 8400a1c:	1080c404 	addi	r2,r2,784
 8400a20:	100490fa 	slli	r2,r2,3
 8400a24:	1885883a 	add	r2,r3,r2
 8400a28:	14000017 	ldw	r16,0(r2)
 8400a2c:	14400117 	ldw	r17,4(r2)
 8400a30:	e0fffb17 	ldw	r3,-20(fp)
 8400a34:	e0bffa17 	ldw	r2,-24(fp)
 8400a38:	100490fa 	slli	r2,r2,3
 8400a3c:	1889883a 	add	r4,r3,r2
 8400a40:	20800017 	ldw	r2,0(r4)
 8400a44:	20c00117 	ldw	r3,4(r4)
 8400a48:	01a666b4 	movhi	r6,39322
 8400a4c:	31a66684 	addi	r6,r6,-26214
 8400a50:	01cfeab4 	movhi	r7,16298
 8400a54:	39e66644 	addi	r7,r7,-26215
 8400a58:	1009883a 	mov	r4,r2
 8400a5c:	180b883a 	mov	r5,r3
 8400a60:	84099480 	call	8409948 <__muldf3>
 8400a64:	1009883a 	mov	r4,r2
 8400a68:	180b883a 	mov	r5,r3
 8400a6c:	2005883a 	mov	r2,r4
 8400a70:	2807883a 	mov	r3,r5
 8400a74:	e1bffc17 	ldw	r6,-16(fp)
 8400a78:	e1fffd17 	ldw	r7,-12(fp)
 8400a7c:	1009883a 	mov	r4,r2
 8400a80:	180b883a 	mov	r5,r3
 8400a84:	84099480 	call	8409948 <__muldf3>
 8400a88:	1009883a 	mov	r4,r2
 8400a8c:	180b883a 	mov	r5,r3
 8400a90:	2005883a 	mov	r2,r4
 8400a94:	2807883a 	mov	r3,r5
 8400a98:	100d883a 	mov	r6,r2
 8400a9c:	180f883a 	mov	r7,r3
 8400aa0:	8009883a 	mov	r4,r16
 8400aa4:	880b883a 	mov	r5,r17
 8400aa8:	84085e40 	call	84085e4 <__adddf3>
 8400aac:	1009883a 	mov	r4,r2
 8400ab0:	180b883a 	mov	r5,r3
 8400ab4:	2005883a 	mov	r2,r4
 8400ab8:	2807883a 	mov	r3,r5
 8400abc:	e17ffb17 	ldw	r5,-20(fp)
 8400ac0:	e13ffa17 	ldw	r4,-24(fp)
 8400ac4:	2100c404 	addi	r4,r4,784
 8400ac8:	200890fa 	slli	r4,r4,3
 8400acc:	2909883a 	add	r4,r5,r4
 8400ad0:	20800015 	stw	r2,0(r4)
 8400ad4:	20c00115 	stw	r3,4(r4)
 * @details Updates a cell's weights based on given error and LEARNING_RATE
 */

void updateCellWeights(Cell *c, double err){
    
    for (int i=0; i<NUMBER_OF_INPUT_CELLS; i++){
 8400ad8:	e0bffa17 	ldw	r2,-24(fp)
 8400adc:	10800044 	addi	r2,r2,1
 8400ae0:	e0bffa15 	stw	r2,-24(fp)
 8400ae4:	e0bffa17 	ldw	r2,-24(fp)
 8400ae8:	1080c410 	cmplti	r2,r2,784
 8400aec:	103fc91e 	bne	r2,zero,8400a14 <__alt_data_end+0xfc400a14>
        c->weight[i] += LEARNING_RATE * c->input[i] * err;
    }
}
 8400af0:	0001883a 	nop
 8400af4:	e6fffe04 	addi	sp,fp,-8
 8400af8:	dfc00317 	ldw	ra,12(sp)
 8400afc:	df000217 	ldw	fp,8(sp)
 8400b00:	dc400117 	ldw	r17,4(sp)
 8400b04:	dc000017 	ldw	r16,0(sp)
 8400b08:	dec00404 	addi	sp,sp,16
 8400b0c:	f800283a 	ret

08400b10 <trainCell>:
/**
 * @details Performs the training algorithm:
 * feeding input, calculate output, calculate error, update weights)
 */

void trainCell(Cell *c, MNIST_Image *img, int target){
 8400b10:	defff904 	addi	sp,sp,-28
 8400b14:	dfc00615 	stw	ra,24(sp)
 8400b18:	df000515 	stw	fp,20(sp)
 8400b1c:	df000504 	addi	fp,sp,20
 8400b20:	e13ffd15 	stw	r4,-12(fp)
 8400b24:	e17ffe15 	stw	r5,-8(fp)
 8400b28:	e1bfff15 	stw	r6,-4(fp)
    
    setCellInput(c, img);
 8400b2c:	e17ffe17 	ldw	r5,-8(fp)
 8400b30:	e13ffd17 	ldw	r4,-12(fp)
 8400b34:	840079c0 	call	840079c <setCellInput>
    calcCellOutput(c);
 8400b38:	e13ffd17 	ldw	r4,-12(fp)
 8400b3c:	84008280 	call	8400828 <calcCellOutput>
    
    // learning (by updating the weights)
    double err = getCellError(c, target);
 8400b40:	e17fff17 	ldw	r5,-4(fp)
 8400b44:	e13ffd17 	ldw	r4,-12(fp)
 8400b48:	84009640 	call	8400964 <getCellError>
 8400b4c:	e0bffb15 	stw	r2,-20(fp)
 8400b50:	e0fffc15 	stw	r3,-16(fp)
    updateCellWeights(c, err);
 8400b54:	e17ffb17 	ldw	r5,-20(fp)
 8400b58:	e1bffc17 	ldw	r6,-16(fp)
 8400b5c:	e13ffd17 	ldw	r4,-12(fp)
 8400b60:	84009e80 	call	84009e8 <updateCellWeights>
}
 8400b64:	0001883a 	nop
 8400b68:	e037883a 	mov	sp,fp
 8400b6c:	dfc00117 	ldw	ra,4(sp)
 8400b70:	df000017 	ldw	fp,0(sp)
 8400b74:	dec00204 	addi	sp,sp,8
 8400b78:	f800283a 	ret

08400b7c <testCell>:
/**
 * @details Performs the testing of the trained network
 * Same as training a cell, but without updating weights (learning)
 */

void testCell(Cell *c, MNIST_Image *img){
 8400b7c:	defffc04 	addi	sp,sp,-16
 8400b80:	dfc00315 	stw	ra,12(sp)
 8400b84:	df000215 	stw	fp,8(sp)
 8400b88:	df000204 	addi	fp,sp,8
 8400b8c:	e13ffe15 	stw	r4,-8(fp)
 8400b90:	e17fff15 	stw	r5,-4(fp)
    
    setCellInput(c, img);
 8400b94:	e17fff17 	ldw	r5,-4(fp)
 8400b98:	e13ffe17 	ldw	r4,-8(fp)
 8400b9c:	840079c0 	call	840079c <setCellInput>
    calcCellOutput(c);
 8400ba0:	e13ffe17 	ldw	r4,-8(fp)
 8400ba4:	84008280 	call	8400828 <calcCellOutput>
    
}
 8400ba8:	0001883a 	nop
 8400bac:	e037883a 	mov	sp,fp
 8400bb0:	dfc00117 	ldw	ra,4(sp)
 8400bb4:	df000017 	ldw	fp,0(sp)
 8400bb8:	dec00204 	addi	sp,sp,8
 8400bbc:	f800283a 	ret

08400bc0 <testLayer>:
 * @details Tests a layer by looping through and testing its cells
 * Exactly the same as TrainLayer() but WITHOUT LEARNING.
 * @param l A pointer to the layer that is to be training
 */

int testLayer(Layer *l, MNIST_Image *img){
 8400bc0:	defffa04 	addi	sp,sp,-24
 8400bc4:	dfc00515 	stw	ra,20(sp)
 8400bc8:	df000415 	stw	fp,16(sp)
 8400bcc:	df000404 	addi	fp,sp,16
 8400bd0:	e13ffe15 	stw	r4,-8(fp)
 8400bd4:	e17fff15 	stw	r5,-4(fp)

	// loop through all output cells for the given image
	for (int i=0; i < NUMBER_OF_OUTPUT_CELLS; i++){
 8400bd8:	e03ffc15 	stw	zero,-16(fp)
 8400bdc:	00000a06 	br	8400c08 <testLayer+0x48>
		testCell(&l->cell[i], img);
 8400be0:	e0bffc17 	ldw	r2,-16(fp)
 8400be4:	108c4424 	muli	r2,r2,12560
 8400be8:	e0fffe17 	ldw	r3,-8(fp)
 8400bec:	1885883a 	add	r2,r3,r2
 8400bf0:	e17fff17 	ldw	r5,-4(fp)
 8400bf4:	1009883a 	mov	r4,r2
 8400bf8:	8400b7c0 	call	8400b7c <testCell>
 */

int testLayer(Layer *l, MNIST_Image *img){

	// loop through all output cells for the given image
	for (int i=0; i < NUMBER_OF_OUTPUT_CELLS; i++){
 8400bfc:	e0bffc17 	ldw	r2,-16(fp)
 8400c00:	10800044 	addi	r2,r2,1
 8400c04:	e0bffc15 	stw	r2,-16(fp)
 8400c08:	e0bffc17 	ldw	r2,-16(fp)
 8400c0c:	10800290 	cmplti	r2,r2,10
 8400c10:	103ff31e 	bne	r2,zero,8400be0 <__alt_data_end+0xfc400be0>
		testCell(&l->cell[i], img);
	}

	uint8_t predictedNum = getLayerPrediction(l);
 8400c14:	e13ffe17 	ldw	r4,-8(fp)
 8400c18:	84006e40 	call	84006e4 <getLayerPrediction>
 8400c1c:	e0bffd05 	stb	r2,-12(fp)

    return predictedNum;
 8400c20:	e0bffd03 	ldbu	r2,-12(fp)

}
 8400c24:	e037883a 	mov	sp,fp
 8400c28:	dfc00117 	ldw	ra,4(sp)
 8400c2c:	df000017 	ldw	fp,0(sp)
 8400c30:	dec00204 	addi	sp,sp,8
 8400c34:	f800283a 	ret

08400c38 <flipBytes>:
 * @details Reverse byte order in 32bit numbers
 * MNIST files contain all numbers in reversed byte order,
 * and hence must be reversed before using
 */

uint32_t flipBytes(uint32_t n){
 8400c38:	defffa04 	addi	sp,sp,-24
 8400c3c:	df000515 	stw	fp,20(sp)
 8400c40:	df000504 	addi	fp,sp,20
 8400c44:	e13fff15 	stw	r4,-4(fp)
    
    uint32_t b0,b1,b2,b3;
    
    b0 = (n & 0x000000ff) <<  24u;
 8400c48:	e0bfff17 	ldw	r2,-4(fp)
 8400c4c:	1004963a 	slli	r2,r2,24
 8400c50:	e0bffb15 	stw	r2,-20(fp)
    b1 = (n & 0x0000ff00) <<   8u;
 8400c54:	e0bfff17 	ldw	r2,-4(fp)
 8400c58:	10bfc00c 	andi	r2,r2,65280
 8400c5c:	1004923a 	slli	r2,r2,8
 8400c60:	e0bffc15 	stw	r2,-16(fp)
    b2 = (n & 0x00ff0000) >>   8u;
 8400c64:	e0bfff17 	ldw	r2,-4(fp)
 8400c68:	10803fec 	andhi	r2,r2,255
 8400c6c:	1004d23a 	srli	r2,r2,8
 8400c70:	e0bffd15 	stw	r2,-12(fp)
    b3 = (n & 0xff000000) >>  24u;
 8400c74:	e0bfff17 	ldw	r2,-4(fp)
 8400c78:	1004d63a 	srli	r2,r2,24
 8400c7c:	e0bffe15 	stw	r2,-8(fp)
    
    return (b0 | b1 | b2 | b3);
 8400c80:	e0fffb17 	ldw	r3,-20(fp)
 8400c84:	e0bffc17 	ldw	r2,-16(fp)
 8400c88:	1886b03a 	or	r3,r3,r2
 8400c8c:	e0bffd17 	ldw	r2,-12(fp)
 8400c90:	1886b03a 	or	r3,r3,r2
 8400c94:	e0bffe17 	ldw	r2,-8(fp)
 8400c98:	1884b03a 	or	r2,r3,r2
    
}
 8400c9c:	e037883a 	mov	sp,fp
 8400ca0:	df000017 	ldw	fp,0(sp)
 8400ca4:	dec00104 	addi	sp,sp,4
 8400ca8:	f800283a 	ret

08400cac <readImageFileHeader>:
/**
 * @details Read MNIST image file header
 * @see http://yann.lecun.com/exdb/mnist/ for definition details
 */

void readImageFileHeader(FILE *imageFile, MNIST_ImageFileHeader *ifh){
 8400cac:	defffc04 	addi	sp,sp,-16
 8400cb0:	dfc00315 	stw	ra,12(sp)
 8400cb4:	df000215 	stw	fp,8(sp)
 8400cb8:	df000204 	addi	fp,sp,8
 8400cbc:	e13ffe15 	stw	r4,-8(fp)
 8400cc0:	e17fff15 	stw	r5,-4(fp)
    
    ifh->magicNumber =0;
 8400cc4:	e0bfff17 	ldw	r2,-4(fp)
 8400cc8:	10000015 	stw	zero,0(r2)
    ifh->maxImages   =0;
 8400ccc:	e0bfff17 	ldw	r2,-4(fp)
 8400cd0:	10000115 	stw	zero,4(r2)
    ifh->imgWidth    =0;
 8400cd4:	e0bfff17 	ldw	r2,-4(fp)
 8400cd8:	10000215 	stw	zero,8(r2)
    ifh->imgHeight   =0;
 8400cdc:	e0bfff17 	ldw	r2,-4(fp)
 8400ce0:	10000315 	stw	zero,12(r2)
    
    fread(&ifh->magicNumber, 4, 1, imageFile);
 8400ce4:	e0bfff17 	ldw	r2,-4(fp)
 8400ce8:	e1fffe17 	ldw	r7,-8(fp)
 8400cec:	01800044 	movi	r6,1
 8400cf0:	01400104 	movi	r5,4
 8400cf4:	1009883a 	mov	r4,r2
 8400cf8:	840ae9c0 	call	840ae9c <fread>
    ifh->magicNumber = flipBytes(ifh->magicNumber);
 8400cfc:	e0bfff17 	ldw	r2,-4(fp)
 8400d00:	10800017 	ldw	r2,0(r2)
 8400d04:	1009883a 	mov	r4,r2
 8400d08:	8400c380 	call	8400c38 <flipBytes>
 8400d0c:	1007883a 	mov	r3,r2
 8400d10:	e0bfff17 	ldw	r2,-4(fp)
 8400d14:	10c00015 	stw	r3,0(r2)
    
    fread(&ifh->maxImages, 4, 1, imageFile);
 8400d18:	e0bfff17 	ldw	r2,-4(fp)
 8400d1c:	10800104 	addi	r2,r2,4
 8400d20:	e1fffe17 	ldw	r7,-8(fp)
 8400d24:	01800044 	movi	r6,1
 8400d28:	01400104 	movi	r5,4
 8400d2c:	1009883a 	mov	r4,r2
 8400d30:	840ae9c0 	call	840ae9c <fread>
    ifh->maxImages = flipBytes(ifh->maxImages);
 8400d34:	e0bfff17 	ldw	r2,-4(fp)
 8400d38:	10800117 	ldw	r2,4(r2)
 8400d3c:	1009883a 	mov	r4,r2
 8400d40:	8400c380 	call	8400c38 <flipBytes>
 8400d44:	1007883a 	mov	r3,r2
 8400d48:	e0bfff17 	ldw	r2,-4(fp)
 8400d4c:	10c00115 	stw	r3,4(r2)
    
    fread(&ifh->imgWidth, 4, 1, imageFile);
 8400d50:	e0bfff17 	ldw	r2,-4(fp)
 8400d54:	10800204 	addi	r2,r2,8
 8400d58:	e1fffe17 	ldw	r7,-8(fp)
 8400d5c:	01800044 	movi	r6,1
 8400d60:	01400104 	movi	r5,4
 8400d64:	1009883a 	mov	r4,r2
 8400d68:	840ae9c0 	call	840ae9c <fread>
    ifh->imgWidth = flipBytes(ifh->imgWidth);
 8400d6c:	e0bfff17 	ldw	r2,-4(fp)
 8400d70:	10800217 	ldw	r2,8(r2)
 8400d74:	1009883a 	mov	r4,r2
 8400d78:	8400c380 	call	8400c38 <flipBytes>
 8400d7c:	1007883a 	mov	r3,r2
 8400d80:	e0bfff17 	ldw	r2,-4(fp)
 8400d84:	10c00215 	stw	r3,8(r2)
    
    fread(&ifh->imgHeight, 4, 1, imageFile);
 8400d88:	e0bfff17 	ldw	r2,-4(fp)
 8400d8c:	10800304 	addi	r2,r2,12
 8400d90:	e1fffe17 	ldw	r7,-8(fp)
 8400d94:	01800044 	movi	r6,1
 8400d98:	01400104 	movi	r5,4
 8400d9c:	1009883a 	mov	r4,r2
 8400da0:	840ae9c0 	call	840ae9c <fread>
    ifh->imgHeight = flipBytes(ifh->imgHeight);
 8400da4:	e0bfff17 	ldw	r2,-4(fp)
 8400da8:	10800317 	ldw	r2,12(r2)
 8400dac:	1009883a 	mov	r4,r2
 8400db0:	8400c380 	call	8400c38 <flipBytes>
 8400db4:	1007883a 	mov	r3,r2
 8400db8:	e0bfff17 	ldw	r2,-4(fp)
 8400dbc:	10c00315 	stw	r3,12(r2)
}
 8400dc0:	0001883a 	nop
 8400dc4:	e037883a 	mov	sp,fp
 8400dc8:	dfc00117 	ldw	ra,4(sp)
 8400dcc:	df000017 	ldw	fp,0(sp)
 8400dd0:	dec00204 	addi	sp,sp,8
 8400dd4:	f800283a 	ret

08400dd8 <readLabelFileHeader>:
/**
 * @details Read MNIST label file header
 * @see http://yann.lecun.com/exdb/mnist/ for definition details
 */

void readLabelFileHeader(FILE *imageFile, MNIST_LabelFileHeader *lfh){
 8400dd8:	defffc04 	addi	sp,sp,-16
 8400ddc:	dfc00315 	stw	ra,12(sp)
 8400de0:	df000215 	stw	fp,8(sp)
 8400de4:	df000204 	addi	fp,sp,8
 8400de8:	e13ffe15 	stw	r4,-8(fp)
 8400dec:	e17fff15 	stw	r5,-4(fp)
    
    lfh->magicNumber =0;
 8400df0:	e0bfff17 	ldw	r2,-4(fp)
 8400df4:	10000015 	stw	zero,0(r2)
    lfh->maxImages   =0;
 8400df8:	e0bfff17 	ldw	r2,-4(fp)
 8400dfc:	10000115 	stw	zero,4(r2)
    
    fread(&lfh->magicNumber, 4, 1, imageFile);
 8400e00:	e0bfff17 	ldw	r2,-4(fp)
 8400e04:	e1fffe17 	ldw	r7,-8(fp)
 8400e08:	01800044 	movi	r6,1
 8400e0c:	01400104 	movi	r5,4
 8400e10:	1009883a 	mov	r4,r2
 8400e14:	840ae9c0 	call	840ae9c <fread>
    lfh->magicNumber = flipBytes(lfh->magicNumber);
 8400e18:	e0bfff17 	ldw	r2,-4(fp)
 8400e1c:	10800017 	ldw	r2,0(r2)
 8400e20:	1009883a 	mov	r4,r2
 8400e24:	8400c380 	call	8400c38 <flipBytes>
 8400e28:	1007883a 	mov	r3,r2
 8400e2c:	e0bfff17 	ldw	r2,-4(fp)
 8400e30:	10c00015 	stw	r3,0(r2)
    
    fread(&lfh->maxImages, 4, 1, imageFile);
 8400e34:	e0bfff17 	ldw	r2,-4(fp)
 8400e38:	10800104 	addi	r2,r2,4
 8400e3c:	e1fffe17 	ldw	r7,-8(fp)
 8400e40:	01800044 	movi	r6,1
 8400e44:	01400104 	movi	r5,4
 8400e48:	1009883a 	mov	r4,r2
 8400e4c:	840ae9c0 	call	840ae9c <fread>
    lfh->maxImages = flipBytes(lfh->maxImages);
 8400e50:	e0bfff17 	ldw	r2,-4(fp)
 8400e54:	10800117 	ldw	r2,4(r2)
 8400e58:	1009883a 	mov	r4,r2
 8400e5c:	8400c380 	call	8400c38 <flipBytes>
 8400e60:	1007883a 	mov	r3,r2
 8400e64:	e0bfff17 	ldw	r2,-4(fp)
 8400e68:	10c00115 	stw	r3,4(r2)
    
}
 8400e6c:	0001883a 	nop
 8400e70:	e037883a 	mov	sp,fp
 8400e74:	dfc00117 	ldw	ra,4(sp)
 8400e78:	df000017 	ldw	fp,0(sp)
 8400e7c:	dec00204 	addi	sp,sp,8
 8400e80:	f800283a 	ret

08400e84 <openMNISTImageFile>:
 * @details Open MNIST image file and read header info
 * by reading the header info, the read pointer
 * is moved to the position of the 1st IMAGE
 */

FILE *openMNISTImageFile(char *fileName){
 8400e84:	defff804 	addi	sp,sp,-32
 8400e88:	dfc00715 	stw	ra,28(sp)
 8400e8c:	df000615 	stw	fp,24(sp)
 8400e90:	df000604 	addi	fp,sp,24
 8400e94:	e13fff15 	stw	r4,-4(fp)

    FILE *imageFile;
    imageFile = fopen (fileName, "rb");
 8400e98:	014210f4 	movhi	r5,2115
 8400e9c:	29563604 	addi	r5,r5,22744
 8400ea0:	e13fff17 	ldw	r4,-4(fp)
 8400ea4:	840ac580 	call	840ac58 <fopen>
 8400ea8:	e0bffa15 	stw	r2,-24(fp)
    if (imageFile == NULL) {
 8400eac:	e0bffa17 	ldw	r2,-24(fp)
 8400eb0:	1000061e 	bne	r2,zero,8400ecc <openMNISTImageFile+0x48>
        printf("Abort! Could not fine MNIST IMAGE file: %s\n",fileName);
 8400eb4:	e17fff17 	ldw	r5,-4(fp)
 8400eb8:	010210f4 	movhi	r4,2115
 8400ebc:	21163704 	addi	r4,r4,22748
 8400ec0:	840c4d00 	call	840c4d0 <printf>
        exit(0);
 8400ec4:	0009883a 	mov	r4,zero
 8400ec8:	840ab2c0 	call	840ab2c <exit>
    }

    MNIST_ImageFileHeader imageFileHeader;
    readImageFileHeader(imageFile, &imageFileHeader);
 8400ecc:	e0bffb04 	addi	r2,fp,-20
 8400ed0:	100b883a 	mov	r5,r2
 8400ed4:	e13ffa17 	ldw	r4,-24(fp)
 8400ed8:	8400cac0 	call	8400cac <readImageFileHeader>
    
    return imageFile;
 8400edc:	e0bffa17 	ldw	r2,-24(fp)
}
 8400ee0:	e037883a 	mov	sp,fp
 8400ee4:	dfc00117 	ldw	ra,4(sp)
 8400ee8:	df000017 	ldw	fp,0(sp)
 8400eec:	dec00204 	addi	sp,sp,8
 8400ef0:	f800283a 	ret

08400ef4 <openMNISTLabelFile>:
 * @details Open MNIST label file and read header info
 * by reading the header info, the read pointer
 * is moved to the position of the 1st LABEL
 */

FILE *openMNISTLabelFile(char *fileName){
 8400ef4:	defffa04 	addi	sp,sp,-24
 8400ef8:	dfc00515 	stw	ra,20(sp)
 8400efc:	df000415 	stw	fp,16(sp)
 8400f00:	df000404 	addi	fp,sp,16
 8400f04:	e13fff15 	stw	r4,-4(fp)
    
    FILE *labelFile;
    labelFile = fopen (fileName, "rb");
 8400f08:	014210f4 	movhi	r5,2115
 8400f0c:	29563604 	addi	r5,r5,22744
 8400f10:	e13fff17 	ldw	r4,-4(fp)
 8400f14:	840ac580 	call	840ac58 <fopen>
 8400f18:	e0bffc15 	stw	r2,-16(fp)
    if (labelFile == NULL) {
 8400f1c:	e0bffc17 	ldw	r2,-16(fp)
 8400f20:	1000061e 	bne	r2,zero,8400f3c <openMNISTLabelFile+0x48>
        printf("Abort! Could not find MNIST LABEL file: %s\n",fileName);
 8400f24:	e17fff17 	ldw	r5,-4(fp)
 8400f28:	010210f4 	movhi	r4,2115
 8400f2c:	21164204 	addi	r4,r4,22792
 8400f30:	840c4d00 	call	840c4d0 <printf>
        exit(0);
 8400f34:	0009883a 	mov	r4,zero
 8400f38:	840ab2c0 	call	840ab2c <exit>
    }

    MNIST_LabelFileHeader labelFileHeader;
    readLabelFileHeader(labelFile, &labelFileHeader);
 8400f3c:	e0bffd04 	addi	r2,fp,-12
 8400f40:	100b883a 	mov	r5,r2
 8400f44:	e13ffc17 	ldw	r4,-16(fp)
 8400f48:	8400dd80 	call	8400dd8 <readLabelFileHeader>
    
    return labelFile;
 8400f4c:	e0bffc17 	ldw	r2,-16(fp)
}
 8400f50:	e037883a 	mov	sp,fp
 8400f54:	dfc00117 	ldw	ra,4(sp)
 8400f58:	df000017 	ldw	fp,0(sp)
 8400f5c:	dec00204 	addi	sp,sp,8
 8400f60:	f800283a 	ret

08400f64 <getImage>:

/**
 * @details Returns the next image in the given MNIST image file
 */

MNIST_Image getImage(FILE *imageFile){
 8400f64:	deff3704 	addi	sp,sp,-804
 8400f68:	dfc0c815 	stw	ra,800(sp)
 8400f6c:	df00c715 	stw	fp,796(sp)
 8400f70:	df00c704 	addi	fp,sp,796
 8400f74:	e13ffe15 	stw	r4,-8(fp)
 8400f78:	e17fff15 	stw	r5,-4(fp)
    
    MNIST_Image img;
    size_t result;
    result = fread(&img, sizeof(img), 1, imageFile);
 8400f7c:	e0bf3a04 	addi	r2,fp,-792
 8400f80:	e1ffff17 	ldw	r7,-4(fp)
 8400f84:	01800044 	movi	r6,1
 8400f88:	0140c404 	movi	r5,784
 8400f8c:	1009883a 	mov	r4,r2
 8400f90:	840ae9c0 	call	840ae9c <fread>
 8400f94:	e0bf3915 	stw	r2,-796(fp)
    if (result!=1) {
 8400f98:	e0bf3917 	ldw	r2,-796(fp)
 8400f9c:	10800060 	cmpeqi	r2,r2,1
 8400fa0:	1000051e 	bne	r2,zero,8400fb8 <getImage+0x54>
        printf("\nError when reading IMAGE file! Abort!\n");
 8400fa4:	010210f4 	movhi	r4,2115
 8400fa8:	21164d04 	addi	r4,r4,22836
 8400fac:	840c5cc0 	call	840c5cc <puts>
        exit(1);
 8400fb0:	01000044 	movi	r4,1
 8400fb4:	840ab2c0 	call	840ab2c <exit>
    }
    
    return img;
 8400fb8:	e0bffe17 	ldw	r2,-8(fp)
 8400fbc:	1009883a 	mov	r4,r2
 8400fc0:	e0bf3a04 	addi	r2,fp,-792
 8400fc4:	00c0c404 	movi	r3,784
 8400fc8:	180d883a 	mov	r6,r3
 8400fcc:	100b883a 	mov	r5,r2
 8400fd0:	840c1d00 	call	840c1d0 <memcpy>
}
 8400fd4:	e0bffe17 	ldw	r2,-8(fp)
 8400fd8:	e037883a 	mov	sp,fp
 8400fdc:	dfc00117 	ldw	ra,4(sp)
 8400fe0:	df000017 	ldw	fp,0(sp)
 8400fe4:	dec00204 	addi	sp,sp,8
 8400fe8:	f800283a 	ret

08400fec <getLabel>:

/**
 * @details Returns the next label in the given MNIST label file
 */

MNIST_Label getLabel(FILE *labelFile){
 8400fec:	defffb04 	addi	sp,sp,-20
 8400ff0:	dfc00415 	stw	ra,16(sp)
 8400ff4:	df000315 	stw	fp,12(sp)
 8400ff8:	df000304 	addi	fp,sp,12
 8400ffc:	e13fff15 	stw	r4,-4(fp)
    
    MNIST_Label lbl;
    size_t result;
    result = fread(&lbl, sizeof(lbl), 1, labelFile);
 8401000:	e0bffe04 	addi	r2,fp,-8
 8401004:	e1ffff17 	ldw	r7,-4(fp)
 8401008:	01800044 	movi	r6,1
 840100c:	01400044 	movi	r5,1
 8401010:	1009883a 	mov	r4,r2
 8401014:	840ae9c0 	call	840ae9c <fread>
 8401018:	e0bffd15 	stw	r2,-12(fp)
    if (result!=1) {
 840101c:	e0bffd17 	ldw	r2,-12(fp)
 8401020:	10800060 	cmpeqi	r2,r2,1
 8401024:	1000051e 	bne	r2,zero,840103c <getLabel+0x50>
        printf("\nError when reading LABEL file! Abort!\n");
 8401028:	010210f4 	movhi	r4,2115
 840102c:	21165704 	addi	r4,r4,22876
 8401030:	840c5cc0 	call	840c5cc <puts>
        exit(1);
 8401034:	01000044 	movi	r4,1
 8401038:	840ab2c0 	call	840ab2c <exit>
    }
    
    return lbl;
 840103c:	e0bffe03 	ldbu	r2,-8(fp)
}
 8401040:	e037883a 	mov	sp,fp
 8401044:	dfc00117 	ldw	ra,4(sp)
 8401048:	df000017 	ldw	fp,0(sp)
 840104c:	dec00204 	addi	sp,sp,8
 8401050:	f800283a 	ret

08401054 <my_wait>:
    #define I2C_DEBUG(x)    DEBUG(x)  
#else
    #define I2C_DEBUG(x)
#endif

void my_wait(int nWait){
 8401054:	defffd04 	addi	sp,sp,-12
 8401058:	df000215 	stw	fp,8(sp)
 840105c:	df000204 	addi	fp,sp,8
 8401060:	e13fff15 	stw	r4,-4(fp)
    int i;
    i = 0;
 8401064:	e03ffe15 	stw	zero,-8(fp)
    while (i < nWait){
 8401068:	00000306 	br	8401078 <my_wait+0x24>
        i++;
 840106c:	e0bffe17 	ldw	r2,-8(fp)
 8401070:	10800044 	addi	r2,r2,1
 8401074:	e0bffe15 	stw	r2,-8(fp)
#endif

void my_wait(int nWait){
    int i;
    i = 0;
    while (i < nWait){
 8401078:	e0fffe17 	ldw	r3,-8(fp)
 840107c:	e0bfff17 	ldw	r2,-4(fp)
 8401080:	18bffa16 	blt	r3,r2,840106c <__alt_data_end+0xfc40106c>
        i++;
     //   IOWR(LED_BASE, 0, i);
    }    
}
 8401084:	0001883a 	nop
 8401088:	e037883a 	mov	sp,fp
 840108c:	df000017 	ldw	fp,0(sp)
 8401090:	dec00104 	addi	sp,sp,4
 8401094:	f800283a 	ret

08401098 <I2C_Write>:
bool i2c_write(alt_u32 clk_base, alt_u32 data_base, alt_u8 Data);
void i2c_read(alt_u32 clk_base, alt_u32 data_base, alt_u8 *pData, bool bAck);



bool I2C_Write(alt_u32 clk_base, alt_u32 data_base, alt_8 DeviceAddr, alt_u8 ControlAddr, alt_u8 ControlData){
 8401098:	defff804 	addi	sp,sp,-32
 840109c:	dfc00715 	stw	ra,28(sp)
 84010a0:	df000615 	stw	fp,24(sp)
 84010a4:	df000604 	addi	fp,sp,24
 84010a8:	e13ffb15 	stw	r4,-20(fp)
 84010ac:	e17ffc15 	stw	r5,-16(fp)
 84010b0:	3009883a 	mov	r4,r6
 84010b4:	3807883a 	mov	r3,r7
 84010b8:	e0800217 	ldw	r2,8(fp)
 84010bc:	e13ffd05 	stb	r4,-12(fp)
 84010c0:	e0fffe05 	stb	r3,-8(fp)
 84010c4:	e0bfff05 	stb	r2,-4(fp)
    bool bSuccess = TRUE;
 84010c8:	00800044 	movi	r2,1
 84010cc:	e0bffa15 	stw	r2,-24(fp)
    //alt_u8 DeviceAddr;
    
    // device id
    //DeviceAddr = HMB_E2_I2C_ID;

    i2c_start(clk_base, data_base);
 84010d0:	e17ffc17 	ldw	r5,-16(fp)
 84010d4:	e13ffb17 	ldw	r4,-20(fp)
 84010d8:	84016ec0 	call	84016ec <i2c_start>
    if (!i2c_write(clk_base, data_base, DeviceAddr)){  // send ID
 84010dc:	e0bffd03 	ldbu	r2,-12(fp)
 84010e0:	10803fcc 	andi	r2,r2,255
 84010e4:	100d883a 	mov	r6,r2
 84010e8:	e17ffc17 	ldw	r5,-16(fp)
 84010ec:	e13ffb17 	ldw	r4,-20(fp)
 84010f0:	84017f00 	call	84017f0 <i2c_write>
 84010f4:	1000041e 	bne	r2,zero,8401108 <I2C_Write+0x70>
        bSuccess = FALSE;
 84010f8:	e03ffa15 	stw	zero,-24(fp)
        I2C_DEBUG(("I2C HMB_E2 Fail: Address NACK!\n"));
 84010fc:	01021134 	movhi	r4,2116
 8401100:	2113a104 	addi	r4,r4,20100
 8401104:	8402abc0 	call	8402abc <myprintf>
    }
    if (bSuccess && !i2c_write(clk_base, data_base, ControlAddr)){ // send sub-address
 8401108:	e0bffa17 	ldw	r2,-24(fp)
 840110c:	10000a26 	beq	r2,zero,8401138 <I2C_Write+0xa0>
 8401110:	e0bffe03 	ldbu	r2,-8(fp)
 8401114:	100d883a 	mov	r6,r2
 8401118:	e17ffc17 	ldw	r5,-16(fp)
 840111c:	e13ffb17 	ldw	r4,-20(fp)
 8401120:	84017f00 	call	84017f0 <i2c_write>
 8401124:	1000041e 	bne	r2,zero,8401138 <I2C_Write+0xa0>
        bSuccess = FALSE;
 8401128:	e03ffa15 	stw	zero,-24(fp)
        I2C_DEBUG(("I2C HMB_E2 Fail: SubAddress NACK!\n"));
 840112c:	01021134 	movhi	r4,2116
 8401130:	2113a904 	addi	r4,r4,20132
 8401134:	8402abc0 	call	8402abc <myprintf>
    }            
    if (bSuccess && !i2c_write(clk_base, data_base, ControlData)){  
 8401138:	e0bffa17 	ldw	r2,-24(fp)
 840113c:	10000a26 	beq	r2,zero,8401168 <I2C_Write+0xd0>
 8401140:	e0bfff03 	ldbu	r2,-4(fp)
 8401144:	100d883a 	mov	r6,r2
 8401148:	e17ffc17 	ldw	r5,-16(fp)
 840114c:	e13ffb17 	ldw	r4,-20(fp)
 8401150:	84017f00 	call	84017f0 <i2c_write>
 8401154:	1000041e 	bne	r2,zero,8401168 <I2C_Write+0xd0>
        bSuccess = FALSE;
 8401158:	e03ffa15 	stw	zero,-24(fp)
        I2C_DEBUG(("I2C HMB_E2 Fail: write NACK!\n"));
 840115c:	01021134 	movhi	r4,2116
 8401160:	2113b204 	addi	r4,r4,20168
 8401164:	8402abc0 	call	8402abc <myprintf>
    }
    i2c_stop(clk_base, data_base);
 8401168:	e17ffc17 	ldw	r5,-16(fp)
 840116c:	e13ffb17 	ldw	r4,-20(fp)
 8401170:	84017780 	call	8401778 <i2c_stop>
    
    usleep(7*1000); // delay to wait EE2 ready (at least 5 ms delay is required)
 8401174:	0106d604 	movi	r4,7000
 8401178:	841a2180 	call	841a218 <usleep>
    
    return bSuccess;
 840117c:	e0bffa17 	ldw	r2,-24(fp)

    
}
 8401180:	e037883a 	mov	sp,fp
 8401184:	dfc00117 	ldw	ra,4(sp)
 8401188:	df000017 	ldw	fp,0(sp)
 840118c:	dec00204 	addi	sp,sp,8
 8401190:	f800283a 	ret

08401194 <I2C_Write16>:

bool I2C_Write16(alt_u32 clk_base, alt_u32 data_base, alt_8 DeviceAddr, alt_u8 ControlAddr, alt_u16 ControlData){
 8401194:	defff704 	addi	sp,sp,-36
 8401198:	dfc00815 	stw	ra,32(sp)
 840119c:	df000715 	stw	fp,28(sp)
 84011a0:	df000704 	addi	fp,sp,28
 84011a4:	e13ffb15 	stw	r4,-20(fp)
 84011a8:	e17ffc15 	stw	r5,-16(fp)
 84011ac:	3009883a 	mov	r4,r6
 84011b0:	3807883a 	mov	r3,r7
 84011b4:	e0800217 	ldw	r2,8(fp)
 84011b8:	e13ffd05 	stb	r4,-12(fp)
 84011bc:	e0fffe05 	stb	r3,-8(fp)
 84011c0:	e0bfff0d 	sth	r2,-4(fp)
    bool bSuccess = TRUE;
 84011c4:	00800044 	movi	r2,1
 84011c8:	e0bff915 	stw	r2,-28(fp)
    alt_u8 HighByte, LowByte;
    //alt_u8 DeviceAddr;
    HighByte = (ControlData >> 8) & 0xFF;
 84011cc:	e0bfff0b 	ldhu	r2,-4(fp)
 84011d0:	1004d23a 	srli	r2,r2,8
 84011d4:	e0bffa05 	stb	r2,-24(fp)
    LowByte = ControlData & 0xFF; 
 84011d8:	e0bfff0b 	ldhu	r2,-4(fp)
 84011dc:	e0bffa45 	stb	r2,-23(fp)
    
    // device id
    //DeviceAddr = HMB_E2_I2C_ID;

    i2c_start(clk_base, data_base);
 84011e0:	e17ffc17 	ldw	r5,-16(fp)
 84011e4:	e13ffb17 	ldw	r4,-20(fp)
 84011e8:	84016ec0 	call	84016ec <i2c_start>
    if (!i2c_write(clk_base, data_base, DeviceAddr)){  // send ID
 84011ec:	e0bffd03 	ldbu	r2,-12(fp)
 84011f0:	10803fcc 	andi	r2,r2,255
 84011f4:	100d883a 	mov	r6,r2
 84011f8:	e17ffc17 	ldw	r5,-16(fp)
 84011fc:	e13ffb17 	ldw	r4,-20(fp)
 8401200:	84017f00 	call	84017f0 <i2c_write>
 8401204:	1000041e 	bne	r2,zero,8401218 <I2C_Write16+0x84>
        bSuccess = FALSE;
 8401208:	e03ff915 	stw	zero,-28(fp)
        I2C_DEBUG(("I2C HMB_E2 Fail: Address NACK!\n"));
 840120c:	01021134 	movhi	r4,2116
 8401210:	2113a104 	addi	r4,r4,20100
 8401214:	8402abc0 	call	8402abc <myprintf>
    }
    if (bSuccess && !i2c_write(clk_base, data_base, ControlAddr)){ // send sub-address
 8401218:	e0bff917 	ldw	r2,-28(fp)
 840121c:	10000a26 	beq	r2,zero,8401248 <I2C_Write16+0xb4>
 8401220:	e0bffe03 	ldbu	r2,-8(fp)
 8401224:	100d883a 	mov	r6,r2
 8401228:	e17ffc17 	ldw	r5,-16(fp)
 840122c:	e13ffb17 	ldw	r4,-20(fp)
 8401230:	84017f00 	call	84017f0 <i2c_write>
 8401234:	1000041e 	bne	r2,zero,8401248 <I2C_Write16+0xb4>
        bSuccess = FALSE;
 8401238:	e03ff915 	stw	zero,-28(fp)
        I2C_DEBUG(("I2C HMB_E2 Fail: SubAddress NACK!\n"));
 840123c:	01021134 	movhi	r4,2116
 8401240:	2113a904 	addi	r4,r4,20132
 8401244:	8402abc0 	call	8402abc <myprintf>
    }            
    if (bSuccess && !i2c_write(clk_base, data_base, HighByte)){  
 8401248:	e0bff917 	ldw	r2,-28(fp)
 840124c:	10000a26 	beq	r2,zero,8401278 <I2C_Write16+0xe4>
 8401250:	e0bffa03 	ldbu	r2,-24(fp)
 8401254:	100d883a 	mov	r6,r2
 8401258:	e17ffc17 	ldw	r5,-16(fp)
 840125c:	e13ffb17 	ldw	r4,-20(fp)
 8401260:	84017f00 	call	84017f0 <i2c_write>
 8401264:	1000041e 	bne	r2,zero,8401278 <I2C_Write16+0xe4>
        bSuccess = FALSE;
 8401268:	e03ff915 	stw	zero,-28(fp)
        I2C_DEBUG(("I2C HMB_E2 Fail: write NACK!\n"));
 840126c:	01021134 	movhi	r4,2116
 8401270:	2113b204 	addi	r4,r4,20168
 8401274:	8402abc0 	call	8402abc <myprintf>
    }
    if (bSuccess && !i2c_write(clk_base, data_base, LowByte)){  
 8401278:	e0bff917 	ldw	r2,-28(fp)
 840127c:	10000a26 	beq	r2,zero,84012a8 <I2C_Write16+0x114>
 8401280:	e0bffa43 	ldbu	r2,-23(fp)
 8401284:	100d883a 	mov	r6,r2
 8401288:	e17ffc17 	ldw	r5,-16(fp)
 840128c:	e13ffb17 	ldw	r4,-20(fp)
 8401290:	84017f00 	call	84017f0 <i2c_write>
 8401294:	1000041e 	bne	r2,zero,84012a8 <I2C_Write16+0x114>
        bSuccess = FALSE;
 8401298:	e03ff915 	stw	zero,-28(fp)
        I2C_DEBUG(("I2C HMB_E2 Fail: write NACK!\n"));
 840129c:	01021134 	movhi	r4,2116
 84012a0:	2113b204 	addi	r4,r4,20168
 84012a4:	8402abc0 	call	8402abc <myprintf>
    }    
    i2c_stop(clk_base, data_base);
 84012a8:	e17ffc17 	ldw	r5,-16(fp)
 84012ac:	e13ffb17 	ldw	r4,-20(fp)
 84012b0:	84017780 	call	8401778 <i2c_stop>
    
    usleep(7*1000); // delay to wait EE2 ready (at least 5 ms delay is required)
 84012b4:	0106d604 	movi	r4,7000
 84012b8:	841a2180 	call	841a218 <usleep>
    
    return bSuccess;
 84012bc:	e0bff917 	ldw	r2,-28(fp)

    
}
 84012c0:	e037883a 	mov	sp,fp
 84012c4:	dfc00117 	ldw	ra,4(sp)
 84012c8:	df000017 	ldw	fp,0(sp)
 84012cc:	dec00204 	addi	sp,sp,8
 84012d0:	f800283a 	ret

084012d4 <I2C_Read>:

bool I2C_Read(alt_u32 clk_base, alt_u32 data_base, alt_8 DeviceAddr, alt_u8 ControlAddr, alt_u8 *pControlData){
 84012d4:	defff904 	addi	sp,sp,-28
 84012d8:	dfc00615 	stw	ra,24(sp)
 84012dc:	df000515 	stw	fp,20(sp)
 84012e0:	df000504 	addi	fp,sp,20
 84012e4:	e13ffc15 	stw	r4,-16(fp)
 84012e8:	e17ffd15 	stw	r5,-12(fp)
 84012ec:	3007883a 	mov	r3,r6
 84012f0:	3805883a 	mov	r2,r7
 84012f4:	e0fffe05 	stb	r3,-8(fp)
 84012f8:	e0bfff05 	stb	r2,-4(fp)
    bool bSuccess = TRUE;
 84012fc:	00800044 	movi	r2,1
 8401300:	e0bffb15 	stw	r2,-20(fp)
    //alt_u8 DeviceAddr;
   
    // device id
    //DeviceAddr = HMB_E2_I2C_ID;

    i2c_start(clk_base, data_base);
 8401304:	e17ffd17 	ldw	r5,-12(fp)
 8401308:	e13ffc17 	ldw	r4,-16(fp)
 840130c:	84016ec0 	call	84016ec <i2c_start>
    if (!i2c_write(clk_base, data_base, DeviceAddr)){  // send ID
 8401310:	e0bffe03 	ldbu	r2,-8(fp)
 8401314:	10803fcc 	andi	r2,r2,255
 8401318:	100d883a 	mov	r6,r2
 840131c:	e17ffd17 	ldw	r5,-12(fp)
 8401320:	e13ffc17 	ldw	r4,-16(fp)
 8401324:	84017f00 	call	84017f0 <i2c_write>
 8401328:	1000041e 	bne	r2,zero,840133c <I2C_Read+0x68>
        bSuccess = FALSE;
 840132c:	e03ffb15 	stw	zero,-20(fp)
        I2C_DEBUG(("I2C_Read(1) Fail: Address NACK!\n"));
 8401330:	01021134 	movhi	r4,2116
 8401334:	2113ba04 	addi	r4,r4,20200
 8401338:	8402abc0 	call	8402abc <myprintf>
    }
    if (bSuccess && !i2c_write(clk_base, data_base, ControlAddr)){ // send sub-address
 840133c:	e0bffb17 	ldw	r2,-20(fp)
 8401340:	10000a26 	beq	r2,zero,840136c <I2C_Read+0x98>
 8401344:	e0bfff03 	ldbu	r2,-4(fp)
 8401348:	100d883a 	mov	r6,r2
 840134c:	e17ffd17 	ldw	r5,-12(fp)
 8401350:	e13ffc17 	ldw	r4,-16(fp)
 8401354:	84017f00 	call	84017f0 <i2c_write>
 8401358:	1000041e 	bne	r2,zero,840136c <I2C_Read+0x98>
        bSuccess = FALSE;
 840135c:	e03ffb15 	stw	zero,-20(fp)
        I2C_DEBUG(("I2C_Read(2) Fail: SubAddress NACK!\n"));
 8401360:	01021134 	movhi	r4,2116
 8401364:	2113c304 	addi	r4,r4,20236
 8401368:	8402abc0 	call	8402abc <myprintf>
    }            
    i2c_start(clk_base, data_base);  // restart
 840136c:	e17ffd17 	ldw	r5,-12(fp)
 8401370:	e13ffc17 	ldw	r4,-16(fp)
 8401374:	84016ec0 	call	84016ec <i2c_start>
    DeviceAddr |= 1; // Read
 8401378:	e0bffe03 	ldbu	r2,-8(fp)
 840137c:	10800054 	ori	r2,r2,1
 8401380:	e0bffe05 	stb	r2,-8(fp)
    if (bSuccess && !i2c_write(clk_base, data_base, DeviceAddr)){  // send id
 8401384:	e0bffb17 	ldw	r2,-20(fp)
 8401388:	10000b26 	beq	r2,zero,84013b8 <I2C_Read+0xe4>
 840138c:	e0bffe03 	ldbu	r2,-8(fp)
 8401390:	10803fcc 	andi	r2,r2,255
 8401394:	100d883a 	mov	r6,r2
 8401398:	e17ffd17 	ldw	r5,-12(fp)
 840139c:	e13ffc17 	ldw	r4,-16(fp)
 84013a0:	84017f00 	call	84017f0 <i2c_write>
 84013a4:	1000041e 	bne	r2,zero,84013b8 <I2C_Read+0xe4>
        bSuccess = FALSE;
 84013a8:	e03ffb15 	stw	zero,-20(fp)
        I2C_DEBUG(("I2C_Read(3) Fail: Address+1 NACK!\n"));
 84013ac:	01021134 	movhi	r4,2116
 84013b0:	2113cc04 	addi	r4,r4,20272
 84013b4:	8402abc0 	call	8402abc <myprintf>
    }
    
    if (bSuccess){
 84013b8:	e0bffb17 	ldw	r2,-20(fp)
 84013bc:	10000526 	beq	r2,zero,84013d4 <I2C_Read+0x100>
        i2c_read(clk_base, data_base, pControlData, FALSE);  // read
 84013c0:	000f883a 	mov	r7,zero
 84013c4:	e1800217 	ldw	r6,8(fp)
 84013c8:	e17ffd17 	ldw	r5,-12(fp)
 84013cc:	e13ffc17 	ldw	r4,-16(fp)
 84013d0:	84019540 	call	8401954 <i2c_read>
    }        
    i2c_stop(clk_base, data_base);
 84013d4:	e17ffd17 	ldw	r5,-12(fp)
 84013d8:	e13ffc17 	ldw	r4,-16(fp)
 84013dc:	84017780 	call	8401778 <i2c_stop>
    
    return bSuccess;
 84013e0:	e0bffb17 	ldw	r2,-20(fp)
}
 84013e4:	e037883a 	mov	sp,fp
 84013e8:	dfc00117 	ldw	ra,4(sp)
 84013ec:	df000017 	ldw	fp,0(sp)
 84013f0:	dec00204 	addi	sp,sp,8
 84013f4:	f800283a 	ret

084013f8 <I2C_Read16>:

bool I2C_Read16(alt_u32 clk_base, alt_u32 data_base, alt_8 DeviceAddr, alt_u8 ControlAddr, alt_u16 *pControlData){
 84013f8:	defff804 	addi	sp,sp,-32
 84013fc:	dfc00715 	stw	ra,28(sp)
 8401400:	df000615 	stw	fp,24(sp)
 8401404:	df000604 	addi	fp,sp,24
 8401408:	e13ffc15 	stw	r4,-16(fp)
 840140c:	e17ffd15 	stw	r5,-12(fp)
 8401410:	3007883a 	mov	r3,r6
 8401414:	3805883a 	mov	r2,r7
 8401418:	e0fffe05 	stb	r3,-8(fp)
 840141c:	e0bfff05 	stb	r2,-4(fp)
    bool bSuccess = TRUE;
 8401420:	00800044 	movi	r2,1
 8401424:	e0bffa15 	stw	r2,-24(fp)
    //alt_u8 DeviceAddr;
   
    // device id
    //DeviceAddr = HMB_E2_I2C_ID;

    i2c_start(clk_base, data_base);
 8401428:	e17ffd17 	ldw	r5,-12(fp)
 840142c:	e13ffc17 	ldw	r4,-16(fp)
 8401430:	84016ec0 	call	84016ec <i2c_start>
    if (!i2c_write(clk_base, data_base, DeviceAddr)){  // send ID
 8401434:	e0bffe03 	ldbu	r2,-8(fp)
 8401438:	10803fcc 	andi	r2,r2,255
 840143c:	100d883a 	mov	r6,r2
 8401440:	e17ffd17 	ldw	r5,-12(fp)
 8401444:	e13ffc17 	ldw	r4,-16(fp)
 8401448:	84017f00 	call	84017f0 <i2c_write>
 840144c:	1000041e 	bne	r2,zero,8401460 <I2C_Read16+0x68>
        bSuccess = FALSE;
 8401450:	e03ffa15 	stw	zero,-24(fp)
        I2C_DEBUG(("I2C HMB_E2 Fail: Address NACK!\n"));
 8401454:	01021134 	movhi	r4,2116
 8401458:	2113a104 	addi	r4,r4,20100
 840145c:	8402abc0 	call	8402abc <myprintf>
    }
    if (bSuccess && !i2c_write(clk_base, data_base, ControlAddr)){ // send sub-address
 8401460:	e0bffa17 	ldw	r2,-24(fp)
 8401464:	10000a26 	beq	r2,zero,8401490 <I2C_Read16+0x98>
 8401468:	e0bfff03 	ldbu	r2,-4(fp)
 840146c:	100d883a 	mov	r6,r2
 8401470:	e17ffd17 	ldw	r5,-12(fp)
 8401474:	e13ffc17 	ldw	r4,-16(fp)
 8401478:	84017f00 	call	84017f0 <i2c_write>
 840147c:	1000041e 	bne	r2,zero,8401490 <I2C_Read16+0x98>
        bSuccess = FALSE;
 8401480:	e03ffa15 	stw	zero,-24(fp)
        I2C_DEBUG(("I2C HMB_E2 Fail: SubAddress NACK!\n"));
 8401484:	01021134 	movhi	r4,2116
 8401488:	2113a904 	addi	r4,r4,20132
 840148c:	8402abc0 	call	8402abc <myprintf>
    }            
    i2c_start(clk_base, data_base);  // restart
 8401490:	e17ffd17 	ldw	r5,-12(fp)
 8401494:	e13ffc17 	ldw	r4,-16(fp)
 8401498:	84016ec0 	call	84016ec <i2c_start>
    DeviceAddr |= 1; // Read
 840149c:	e0bffe03 	ldbu	r2,-8(fp)
 84014a0:	10800054 	ori	r2,r2,1
 84014a4:	e0bffe05 	stb	r2,-8(fp)
    if (bSuccess && !i2c_write(clk_base, data_base, DeviceAddr)){  // send id
 84014a8:	e0bffa17 	ldw	r2,-24(fp)
 84014ac:	10000b26 	beq	r2,zero,84014dc <I2C_Read16+0xe4>
 84014b0:	e0bffe03 	ldbu	r2,-8(fp)
 84014b4:	10803fcc 	andi	r2,r2,255
 84014b8:	100d883a 	mov	r6,r2
 84014bc:	e17ffd17 	ldw	r5,-12(fp)
 84014c0:	e13ffc17 	ldw	r4,-16(fp)
 84014c4:	84017f00 	call	84017f0 <i2c_write>
 84014c8:	1000041e 	bne	r2,zero,84014dc <I2C_Read16+0xe4>
        bSuccess = FALSE;
 84014cc:	e03ffa15 	stw	zero,-24(fp)
        I2C_DEBUG(("I2C HMB_E2 Fail: Address+1 NACK!\n"));
 84014d0:	01021134 	movhi	r4,2116
 84014d4:	2113d504 	addi	r4,r4,20308
 84014d8:	8402abc0 	call	8402abc <myprintf>
    }
    
    if (bSuccess){
 84014dc:	e0bffa17 	ldw	r2,-24(fp)
 84014e0:	10000626 	beq	r2,zero,84014fc <I2C_Read16+0x104>
        i2c_read(clk_base, data_base, &HighByte, TRUE);  // read
 84014e4:	e0bffb44 	addi	r2,fp,-19
 84014e8:	01c00044 	movi	r7,1
 84014ec:	100d883a 	mov	r6,r2
 84014f0:	e17ffd17 	ldw	r5,-12(fp)
 84014f4:	e13ffc17 	ldw	r4,-16(fp)
 84014f8:	84019540 	call	8401954 <i2c_read>
    }        
    if (bSuccess){
 84014fc:	e0bffa17 	ldw	r2,-24(fp)
 8401500:	10000626 	beq	r2,zero,840151c <I2C_Read16+0x124>
        i2c_read(clk_base, data_base, &LowByte, FALSE);  // read
 8401504:	e0bffb04 	addi	r2,fp,-20
 8401508:	000f883a 	mov	r7,zero
 840150c:	100d883a 	mov	r6,r2
 8401510:	e17ffd17 	ldw	r5,-12(fp)
 8401514:	e13ffc17 	ldw	r4,-16(fp)
 8401518:	84019540 	call	8401954 <i2c_read>
    }        
    if (bSuccess)
 840151c:	e0bffa17 	ldw	r2,-24(fp)
 8401520:	10000a26 	beq	r2,zero,840154c <I2C_Read16+0x154>
        *pControlData = (HighByte << 8) | LowByte;
 8401524:	e0bffb43 	ldbu	r2,-19(fp)
 8401528:	10803fcc 	andi	r2,r2,255
 840152c:	1004923a 	slli	r2,r2,8
 8401530:	1007883a 	mov	r3,r2
 8401534:	e0bffb03 	ldbu	r2,-20(fp)
 8401538:	10803fcc 	andi	r2,r2,255
 840153c:	1884b03a 	or	r2,r3,r2
 8401540:	1007883a 	mov	r3,r2
 8401544:	e0800217 	ldw	r2,8(fp)
 8401548:	10c0000d 	sth	r3,0(r2)
    i2c_stop(clk_base, data_base);
 840154c:	e17ffd17 	ldw	r5,-12(fp)
 8401550:	e13ffc17 	ldw	r4,-16(fp)
 8401554:	84017780 	call	8401778 <i2c_stop>
    
    return bSuccess;
 8401558:	e0bffa17 	ldw	r2,-24(fp)
}
 840155c:	e037883a 	mov	sp,fp
 8401560:	dfc00117 	ldw	ra,4(sp)
 8401564:	df000017 	ldw	fp,0(sp)
 8401568:	dec00204 	addi	sp,sp,8
 840156c:	f800283a 	ret

08401570 <I2C_MultipleRead>:


bool I2C_MultipleRead(alt_u32 clk_base, alt_u32 data_base, alt_8 DeviceAddr, alt_u8 ControlAddr, alt_u8 *pBuf, alt_u16 len){
 8401570:	defff704 	addi	sp,sp,-36
 8401574:	dfc00815 	stw	ra,32(sp)
 8401578:	df000715 	stw	fp,28(sp)
 840157c:	df000704 	addi	fp,sp,28
 8401580:	e13ffb15 	stw	r4,-20(fp)
 8401584:	e17ffc15 	stw	r5,-16(fp)
 8401588:	3009883a 	mov	r4,r6
 840158c:	3807883a 	mov	r3,r7
 8401590:	e0800317 	ldw	r2,12(fp)
 8401594:	e13ffd05 	stb	r4,-12(fp)
 8401598:	e0fffe05 	stb	r3,-8(fp)
 840159c:	e0bfff0d 	sth	r2,-4(fp)
    int i;
    bool bSuccess = TRUE;
 84015a0:	00800044 	movi	r2,1
 84015a4:	e0bffa15 	stw	r2,-24(fp)
    
   
    // device id
    //DeviceAddr = HMB_E2_I2C_ID;

    i2c_start(clk_base, data_base);
 84015a8:	e17ffc17 	ldw	r5,-16(fp)
 84015ac:	e13ffb17 	ldw	r4,-20(fp)
 84015b0:	84016ec0 	call	84016ec <i2c_start>
    if (!i2c_write(clk_base, data_base, DeviceAddr)){  // send ID
 84015b4:	e0bffd03 	ldbu	r2,-12(fp)
 84015b8:	10803fcc 	andi	r2,r2,255
 84015bc:	100d883a 	mov	r6,r2
 84015c0:	e17ffc17 	ldw	r5,-16(fp)
 84015c4:	e13ffb17 	ldw	r4,-20(fp)
 84015c8:	84017f00 	call	84017f0 <i2c_write>
 84015cc:	1000041e 	bne	r2,zero,84015e0 <I2C_MultipleRead+0x70>
        bSuccess = FALSE;
 84015d0:	e03ffa15 	stw	zero,-24(fp)
        I2C_DEBUG(("I2C_MultipleRead(1) Fail: Address NACK!\n"));
 84015d4:	01021134 	movhi	r4,2116
 84015d8:	2113de04 	addi	r4,r4,20344
 84015dc:	8402abc0 	call	8402abc <myprintf>
    }    
    if (bSuccess && !i2c_write(clk_base, data_base, ControlAddr)){ // send sub-address
 84015e0:	e0bffa17 	ldw	r2,-24(fp)
 84015e4:	10000a26 	beq	r2,zero,8401610 <I2C_MultipleRead+0xa0>
 84015e8:	e0bffe03 	ldbu	r2,-8(fp)
 84015ec:	100d883a 	mov	r6,r2
 84015f0:	e17ffc17 	ldw	r5,-16(fp)
 84015f4:	e13ffb17 	ldw	r4,-20(fp)
 84015f8:	84017f00 	call	84017f0 <i2c_write>
 84015fc:	1000041e 	bne	r2,zero,8401610 <I2C_MultipleRead+0xa0>
        bSuccess = FALSE;
 8401600:	e03ffa15 	stw	zero,-24(fp)
        I2C_DEBUG(("I2C_MultipleRead(2) Fail: SubAddress NACK!\n"));
 8401604:	01021134 	movhi	r4,2116
 8401608:	2113e904 	addi	r4,r4,20388
 840160c:	8402abc0 	call	8402abc <myprintf>
    }    
    if (bSuccess)        
 8401610:	e0bffa17 	ldw	r2,-24(fp)
 8401614:	10000326 	beq	r2,zero,8401624 <I2C_MultipleRead+0xb4>
        i2c_start(clk_base, data_base);  // restart
 8401618:	e17ffc17 	ldw	r5,-16(fp)
 840161c:	e13ffb17 	ldw	r4,-20(fp)
 8401620:	84016ec0 	call	84016ec <i2c_start>
    DeviceAddr |= 1; // Read
 8401624:	e0bffd03 	ldbu	r2,-12(fp)
 8401628:	10800054 	ori	r2,r2,1
 840162c:	e0bffd05 	stb	r2,-12(fp)
    if (bSuccess && !i2c_write(clk_base, data_base, DeviceAddr)){  // send id
 8401630:	e0bffa17 	ldw	r2,-24(fp)
 8401634:	10000b26 	beq	r2,zero,8401664 <I2C_MultipleRead+0xf4>
 8401638:	e0bffd03 	ldbu	r2,-12(fp)
 840163c:	10803fcc 	andi	r2,r2,255
 8401640:	100d883a 	mov	r6,r2
 8401644:	e17ffc17 	ldw	r5,-16(fp)
 8401648:	e13ffb17 	ldw	r4,-20(fp)
 840164c:	84017f00 	call	84017f0 <i2c_write>
 8401650:	1000041e 	bne	r2,zero,8401664 <I2C_MultipleRead+0xf4>
        bSuccess = FALSE;
 8401654:	e03ffa15 	stw	zero,-24(fp)
        I2C_DEBUG(("I2C_MultipleRead(3) Fail: Address+1 NACK!\n"));
 8401658:	01021134 	movhi	r4,2116
 840165c:	2113f404 	addi	r4,r4,20432
 8401660:	8402abc0 	call	8402abc <myprintf>
    }
    
    if (bSuccess){
 8401664:	e0bffa17 	ldw	r2,-24(fp)
 8401668:	10001726 	beq	r2,zero,84016c8 <I2C_MultipleRead+0x158>
        for(i=0;i<len && bSuccess;i++){
 840166c:	e03ff915 	stw	zero,-28(fp)
 8401670:	00001006 	br	84016b4 <I2C_MultipleRead+0x144>
            i2c_read(clk_base, data_base, pBuf, (i==(len-1))?FALSE:TRUE);  // read
 8401674:	e0bfff0b 	ldhu	r2,-4(fp)
 8401678:	10ffffc4 	addi	r3,r2,-1
 840167c:	e0bff917 	ldw	r2,-28(fp)
 8401680:	1884c03a 	cmpne	r2,r3,r2
 8401684:	10803fcc 	andi	r2,r2,255
 8401688:	100f883a 	mov	r7,r2
 840168c:	e1800217 	ldw	r6,8(fp)
 8401690:	e17ffc17 	ldw	r5,-16(fp)
 8401694:	e13ffb17 	ldw	r4,-20(fp)
 8401698:	84019540 	call	8401954 <i2c_read>
            pBuf++;
 840169c:	e0800217 	ldw	r2,8(fp)
 84016a0:	10800044 	addi	r2,r2,1
 84016a4:	e0800215 	stw	r2,8(fp)
        bSuccess = FALSE;
        I2C_DEBUG(("I2C_MultipleRead(3) Fail: Address+1 NACK!\n"));
    }
    
    if (bSuccess){
        for(i=0;i<len && bSuccess;i++){
 84016a8:	e0bff917 	ldw	r2,-28(fp)
 84016ac:	10800044 	addi	r2,r2,1
 84016b0:	e0bff915 	stw	r2,-28(fp)
 84016b4:	e0bfff0b 	ldhu	r2,-4(fp)
 84016b8:	e0fff917 	ldw	r3,-28(fp)
 84016bc:	1880020e 	bge	r3,r2,84016c8 <I2C_MultipleRead+0x158>
 84016c0:	e0bffa17 	ldw	r2,-24(fp)
 84016c4:	103feb1e 	bne	r2,zero,8401674 <__alt_data_end+0xfc401674>
            i2c_read(clk_base, data_base, pBuf, (i==(len-1))?FALSE:TRUE);  // read
            pBuf++;
        }            
    }        
    i2c_stop(clk_base, data_base);
 84016c8:	e17ffc17 	ldw	r5,-16(fp)
 84016cc:	e13ffb17 	ldw	r4,-20(fp)
 84016d0:	84017780 	call	8401778 <i2c_stop>
    
    return bSuccess;    
 84016d4:	e0bffa17 	ldw	r2,-24(fp)
    
}
 84016d8:	e037883a 	mov	sp,fp
 84016dc:	dfc00117 	ldw	ra,4(sp)
 84016e0:	df000017 	ldw	fp,0(sp)
 84016e4:	dec00204 	addi	sp,sp,8
 84016e8:	f800283a 	ret

084016ec <i2c_start>:
///////////// Interncal function (i2cXXX) body //////////////////////////////////////////////
/////////////////////////////////////////////////////////////////////////////////////////////


//SDA 1->0 while SCL=1
void i2c_start(alt_u32 clk_base, alt_u32 data_base){
 84016ec:	defffc04 	addi	sp,sp,-16
 84016f0:	dfc00315 	stw	ra,12(sp)
 84016f4:	df000215 	stw	fp,8(sp)
 84016f8:	df000204 	addi	fp,sp,8
 84016fc:	e13ffe15 	stw	r4,-8(fp)
 8401700:	e17fff15 	stw	r5,-4(fp)
    
    // make sure it is in normal state
    SDA_DIR_OUT(data_base);  // data output enabled
 8401704:	e0bfff17 	ldw	r2,-4(fp)
 8401708:	10800104 	addi	r2,r2,4
 840170c:	1007883a 	mov	r3,r2
 8401710:	00800044 	movi	r2,1
 8401714:	18800035 	stwio	r2,0(r3)
    
    
    
    // start condition
    SDA_HIGH(data_base); // data high
 8401718:	e0bfff17 	ldw	r2,-4(fp)
 840171c:	00c00044 	movi	r3,1
 8401720:	10c00035 	stwio	r3,0(r2)
    SCL_HIGH(clk_base);
 8401724:	e0bffe17 	ldw	r2,-8(fp)
 8401728:	00c00044 	movi	r3,1
 840172c:	10c00035 	stwio	r3,0(r2)
    SCL_DELAY;
 8401730:	01000584 	movi	r4,22
 8401734:	84010540 	call	8401054 <my_wait>
     
    SDA_LOW(data_base); // data low
 8401738:	e0bfff17 	ldw	r2,-4(fp)
 840173c:	0007883a 	mov	r3,zero
 8401740:	10c00035 	stwio	r3,0(r2)
    SCL_DELAY; 
 8401744:	01000584 	movi	r4,22
 8401748:	84010540 	call	8401054 <my_wait>
    SCL_LOW(clk_base); // clock low
 840174c:	e0bffe17 	ldw	r2,-8(fp)
 8401750:	0007883a 	mov	r3,zero
 8401754:	10c00035 	stwio	r3,0(r2)
    SCL_DELAY;
 8401758:	01000584 	movi	r4,22
 840175c:	84010540 	call	8401054 <my_wait>
}
 8401760:	0001883a 	nop
 8401764:	e037883a 	mov	sp,fp
 8401768:	dfc00117 	ldw	ra,4(sp)
 840176c:	df000017 	ldw	fp,0(sp)
 8401770:	dec00204 	addi	sp,sp,8
 8401774:	f800283a 	ret

08401778 <i2c_stop>:

// SDA 0->1 while SCL=1
void i2c_stop(alt_u32 clk_base, alt_u32 data_base){
 8401778:	defffc04 	addi	sp,sp,-16
 840177c:	dfc00315 	stw	ra,12(sp)
 8401780:	df000215 	stw	fp,8(sp)
 8401784:	df000204 	addi	fp,sp,8
 8401788:	e13ffe15 	stw	r4,-8(fp)
 840178c:	e17fff15 	stw	r5,-4(fp)
    // assume SCL = 0
    
    SDA_DIR_OUT(data_base);  // data output enabled
 8401790:	e0bfff17 	ldw	r2,-4(fp)
 8401794:	10800104 	addi	r2,r2,4
 8401798:	1007883a 	mov	r3,r2
 840179c:	00800044 	movi	r2,1
 84017a0:	18800035 	stwio	r2,0(r3)
    SDA_LOW(data_base); // Data Low
 84017a4:	e0bfff17 	ldw	r2,-4(fp)
 84017a8:	0007883a 	mov	r3,zero
 84017ac:	10c00035 	stwio	r3,0(r2)
    //SCL_DELAY; 
    SCL_HIGH(clk_base);  // clock high
 84017b0:	e0bffe17 	ldw	r2,-8(fp)
 84017b4:	00c00044 	movi	r3,1
 84017b8:	10c00035 	stwio	r3,0(r2)
    SCL_DELAY; // clock high long delay
 84017bc:	01000584 	movi	r4,22
 84017c0:	84010540 	call	8401054 <my_wait>
    SDA_HIGH(data_base); // data high
 84017c4:	e0bfff17 	ldw	r2,-4(fp)
 84017c8:	00c00044 	movi	r3,1
 84017cc:	10c00035 	stwio	r3,0(r2)
    SCL_DELAY; // data high delay
 84017d0:	01000584 	movi	r4,22
 84017d4:	84010540 	call	8401054 <my_wait>
    

    
}
 84017d8:	0001883a 	nop
 84017dc:	e037883a 	mov	sp,fp
 84017e0:	dfc00117 	ldw	ra,4(sp)
 84017e4:	df000017 	ldw	fp,0(sp)
 84017e8:	dec00204 	addi	sp,sp,8
 84017ec:	f800283a 	ret

084017f0 <i2c_write>:

bool i2c_write(alt_u32 clk_base, alt_u32 data_base, alt_u8 Data){ // return true if device response ack
 84017f0:	defff704 	addi	sp,sp,-36
 84017f4:	dfc00815 	stw	ra,32(sp)
 84017f8:	df000715 	stw	fp,28(sp)
 84017fc:	df000704 	addi	fp,sp,28
 8401800:	e13ffd15 	stw	r4,-12(fp)
 8401804:	e17ffe15 	stw	r5,-8(fp)
 8401808:	3005883a 	mov	r2,r6
 840180c:	e0bfff05 	stb	r2,-4(fp)
    alt_u8 Mask = 0x80;
 8401810:	00bfe004 	movi	r2,-128
 8401814:	e0bff905 	stb	r2,-28(fp)
    int i;
    int w;
    
    // assume, SCL = 0
    
    SDA_DIR_OUT(data_base);  // data write mode
 8401818:	e0bffe17 	ldw	r2,-8(fp)
 840181c:	10800104 	addi	r2,r2,4
 8401820:	1007883a 	mov	r3,r2
 8401824:	00800044 	movi	r2,1
 8401828:	18800035 	stwio	r2,0(r3)
    
    for(i=0;i<8;i++){
 840182c:	e03ffa15 	stw	zero,-24(fp)
 8401830:	00001f06 	br	84018b0 <i2c_write+0xc0>
        SCL_LOW(clk_base);  // new, make sure data change at clk low
 8401834:	e0bffd17 	ldw	r2,-12(fp)
 8401838:	0007883a 	mov	r3,zero
 840183c:	10c00035 	stwio	r3,0(r2)
        // output data on bus
        if (Data & Mask){ // there is a delay in this command
 8401840:	e0ffff03 	ldbu	r3,-4(fp)
 8401844:	e0bff903 	ldbu	r2,-28(fp)
 8401848:	1884703a 	and	r2,r3,r2
 840184c:	10803fcc 	andi	r2,r2,255
 8401850:	10000426 	beq	r2,zero,8401864 <i2c_write+0x74>
            SDA_HIGH(data_base);
 8401854:	e0bffe17 	ldw	r2,-8(fp)
 8401858:	00c00044 	movi	r3,1
 840185c:	10c00035 	stwio	r3,0(r2)
 8401860:	00000306 	br	8401870 <i2c_write+0x80>
        }else{    
            SDA_LOW(data_base);
 8401864:	e0bffe17 	ldw	r2,-8(fp)
 8401868:	0007883a 	mov	r3,zero
 840186c:	10c00035 	stwio	r3,0(r2)
        }
        Mask >>= 1; // there is a delay in this command
 8401870:	e0bff903 	ldbu	r2,-28(fp)
 8401874:	1004d07a 	srli	r2,r2,1
 8401878:	e0bff905 	stb	r2,-28(fp)
        // clock high
        SCL_HIGH(clk_base);
 840187c:	e0bffd17 	ldw	r2,-12(fp)
 8401880:	00c00044 	movi	r3,1
 8401884:	10c00035 	stwio	r3,0(r2)
        SCL_DELAY;
 8401888:	01000584 	movi	r4,22
 840188c:	84010540 	call	8401054 <my_wait>
        SCL_LOW(clk_base);
 8401890:	e0bffd17 	ldw	r2,-12(fp)
 8401894:	0007883a 	mov	r3,zero
 8401898:	10c00035 	stwio	r3,0(r2)
        SCL_DELAY;
 840189c:	01000584 	movi	r4,22
 84018a0:	84010540 	call	8401054 <my_wait>
    
    // assume, SCL = 0
    
    SDA_DIR_OUT(data_base);  // data write mode
    
    for(i=0;i<8;i++){
 84018a4:	e0bffa17 	ldw	r2,-24(fp)
 84018a8:	10800044 	addi	r2,r2,1
 84018ac:	e0bffa15 	stw	r2,-24(fp)
 84018b0:	e0bffa17 	ldw	r2,-24(fp)
 84018b4:	10800210 	cmplti	r2,r2,8
 84018b8:	103fde1e 	bne	r2,zero,8401834 <__alt_data_end+0xfc401834>
        SCL_LOW(clk_base);
        SCL_DELAY;
    }
    
    //===== get ack
    SDA_DIR_IN(data_base);  // data read mode
 84018bc:	e0bffe17 	ldw	r2,-8(fp)
 84018c0:	10800104 	addi	r2,r2,4
 84018c4:	0007883a 	mov	r3,zero
 84018c8:	10c00035 	stwio	r3,0(r2)
    //SCL_DELAY;
//------------------ wait ack for muti-touch panel
SCL_DELAY;
 84018cc:	01000584 	movi	r4,22
 84018d0:	84010540 	call	8401054 <my_wait>
w = 0;
 84018d4:	e03ffb15 	stw	zero,-20(fp)
while(SDA_READ(data_base) && w++ < 1000000){
 84018d8:	0001883a 	nop
 84018dc:	e0bffe17 	ldw	r2,-8(fp)
 84018e0:	10800037 	ldwio	r2,0(r2)
 84018e4:	10000626 	beq	r2,zero,8401900 <i2c_write+0x110>
 84018e8:	e0fffb17 	ldw	r3,-20(fp)
 84018ec:	18800044 	addi	r2,r3,1
 84018f0:	e0bffb15 	stw	r2,-20(fp)
 84018f4:	008003f4 	movhi	r2,15
 84018f8:	10908fc4 	addi	r2,r2,16959
 84018fc:	10fff70e 	bge	r2,r3,84018dc <__alt_data_end+0xfc4018dc>
}    
    // clock high
    SCL_HIGH(clk_base);  // clock high
 8401900:	e0bffd17 	ldw	r2,-12(fp)
 8401904:	00c00044 	movi	r3,1
 8401908:	10c00035 	stwio	r3,0(r2)
    SCL_DELAY;  // clock high delay
 840190c:	01000584 	movi	r4,22
 8401910:	84010540 	call	8401054 <my_wait>
    bAck = SDA_READ(data_base)?FALSE:TRUE;  // get ack
 8401914:	e0bffe17 	ldw	r2,-8(fp)
 8401918:	10800037 	ldwio	r2,0(r2)
 840191c:	1005003a 	cmpeq	r2,r2,zero
 8401920:	10803fcc 	andi	r2,r2,255
 8401924:	e0bffc15 	stw	r2,-16(fp)
    //SCL_DELAY;
    //SDA_DIR_OUT;
    SCL_LOW(clk_base); // clock low         
 8401928:	e0bffd17 	ldw	r2,-12(fp)
 840192c:	0007883a 	mov	r3,zero
 8401930:	10c00035 	stwio	r3,0(r2)
    SCL_DELAY; // clock low delay
 8401934:	01000584 	movi	r4,22
 8401938:	84010540 	call	8401054 <my_wait>
    return bAck;
 840193c:	e0bffc17 	ldw	r2,-16(fp)
}    
 8401940:	e037883a 	mov	sp,fp
 8401944:	dfc00117 	ldw	ra,4(sp)
 8401948:	df000017 	ldw	fp,0(sp)
 840194c:	dec00204 	addi	sp,sp,8
 8401950:	f800283a 	ret

08401954 <i2c_read>:

void i2c_read(alt_u32 clk_base, alt_u32 data_base, alt_u8 *pData, bool bAck){ // return true if device response ack
 8401954:	defff804 	addi	sp,sp,-32
 8401958:	dfc00715 	stw	ra,28(sp)
 840195c:	df000615 	stw	fp,24(sp)
 8401960:	df000604 	addi	fp,sp,24
 8401964:	e13ffc15 	stw	r4,-16(fp)
 8401968:	e17ffd15 	stw	r5,-12(fp)
 840196c:	e1bffe15 	stw	r6,-8(fp)
 8401970:	e1ffff15 	stw	r7,-4(fp)
    alt_u8 Data=0;
 8401974:	e03ffa05 	stb	zero,-24(fp)
    int i;
    
    // assume SCL = low
    
    SDA_DIR_IN(data_base);  // set data read mode
 8401978:	e0bffd17 	ldw	r2,-12(fp)
 840197c:	10800104 	addi	r2,r2,4
 8401980:	0007883a 	mov	r3,zero
 8401984:	10c00035 	stwio	r3,0(r2)
    SCL_LOW(clk_base); // clock low
 8401988:	e0bffc17 	ldw	r2,-16(fp)
 840198c:	0007883a 	mov	r3,zero
 8401990:	10c00035 	stwio	r3,0(r2)
    SCL_DELAY; // clock low delay
 8401994:	01000584 	movi	r4,22
 8401998:	84010540 	call	8401054 <my_wait>

    for(i=0;i<8;i++){
 840199c:	e03ffb15 	stw	zero,-20(fp)
 84019a0:	00001606 	br	84019fc <i2c_read+0xa8>
        Data <<= 1;
 84019a4:	e0bffa03 	ldbu	r2,-24(fp)
 84019a8:	1085883a 	add	r2,r2,r2
 84019ac:	e0bffa05 	stb	r2,-24(fp)
        SCL_HIGH(clk_base);  // clock high
 84019b0:	e0bffc17 	ldw	r2,-16(fp)
 84019b4:	00c00044 	movi	r3,1
 84019b8:	10c00035 	stwio	r3,0(r2)
        SCL_DELAY;
 84019bc:	01000584 	movi	r4,22
 84019c0:	84010540 	call	8401054 <my_wait>
        if (SDA_READ(data_base))  // read data   
 84019c4:	e0bffd17 	ldw	r2,-12(fp)
 84019c8:	10800037 	ldwio	r2,0(r2)
 84019cc:	10000326 	beq	r2,zero,84019dc <i2c_read+0x88>
            Data |= 0x01;
 84019d0:	e0bffa03 	ldbu	r2,-24(fp)
 84019d4:	10800054 	ori	r2,r2,1
 84019d8:	e0bffa05 	stb	r2,-24(fp)
        SCL_LOW(clk_base);  // clock log  
 84019dc:	e0bffc17 	ldw	r2,-16(fp)
 84019e0:	0007883a 	mov	r3,zero
 84019e4:	10c00035 	stwio	r3,0(r2)
        SCL_DELAY;
 84019e8:	01000584 	movi	r4,22
 84019ec:	84010540 	call	8401054 <my_wait>
    
    SDA_DIR_IN(data_base);  // set data read mode
    SCL_LOW(clk_base); // clock low
    SCL_DELAY; // clock low delay

    for(i=0;i<8;i++){
 84019f0:	e0bffb17 	ldw	r2,-20(fp)
 84019f4:	10800044 	addi	r2,r2,1
 84019f8:	e0bffb15 	stw	r2,-20(fp)
 84019fc:	e0bffb17 	ldw	r2,-20(fp)
 8401a00:	10800210 	cmplti	r2,r2,8
 8401a04:	103fe71e 	bne	r2,zero,84019a4 <__alt_data_end+0xfc4019a4>
        SCL_LOW(clk_base);  // clock log  
        SCL_DELAY;
    }
    
    // send ACK
    SCL_LOW(clk_base);  // new, make sure data change at clk low
 8401a08:	e0bffc17 	ldw	r2,-16(fp)
 8401a0c:	0007883a 	mov	r3,zero
 8401a10:	10c00035 	stwio	r3,0(r2)
    SDA_DIR_OUT(data_base);  // set data write mode
 8401a14:	e0bffd17 	ldw	r2,-12(fp)
 8401a18:	10800104 	addi	r2,r2,4
 8401a1c:	1007883a 	mov	r3,r2
 8401a20:	00800044 	movi	r2,1
 8401a24:	18800035 	stwio	r2,0(r3)
    if (bAck)
 8401a28:	e0bfff17 	ldw	r2,-4(fp)
 8401a2c:	10000426 	beq	r2,zero,8401a40 <i2c_read+0xec>
        SDA_LOW(data_base);
 8401a30:	e0bffd17 	ldw	r2,-12(fp)
 8401a34:	0007883a 	mov	r3,zero
 8401a38:	10c00035 	stwio	r3,0(r2)
 8401a3c:	00000306 	br	8401a4c <i2c_read+0xf8>
    else
        SDA_HIGH(data_base);
 8401a40:	e0bffd17 	ldw	r2,-12(fp)
 8401a44:	00c00044 	movi	r3,1
 8401a48:	10c00035 	stwio	r3,0(r2)
    SCL_HIGH(clk_base); // clock high
 8401a4c:	e0bffc17 	ldw	r2,-16(fp)
 8401a50:	00c00044 	movi	r3,1
 8401a54:	10c00035 	stwio	r3,0(r2)
    SCL_DELAY; // clock high  delay
 8401a58:	01000584 	movi	r4,22
 8401a5c:	84010540 	call	8401054 <my_wait>
    SCL_LOW(clk_base); // clock low
 8401a60:	e0bffc17 	ldw	r2,-16(fp)
 8401a64:	0007883a 	mov	r3,zero
 8401a68:	10c00035 	stwio	r3,0(r2)
    SCL_DELAY; // clock low delay
 8401a6c:	01000584 	movi	r4,22
 8401a70:	84010540 	call	8401054 <my_wait>
    SDA_LOW(data_base);  // data low
 8401a74:	e0bffd17 	ldw	r2,-12(fp)
 8401a78:	0007883a 	mov	r3,zero
 8401a7c:	10c00035 	stwio	r3,0(r2)
    SCL_DELAY; // data low delay
 8401a80:	01000584 	movi	r4,22
 8401a84:	84010540 	call	8401054 <my_wait>
//    SDA_DIR_IN;  // set data read mode
    
    *pData = Data;
 8401a88:	e0bffe17 	ldw	r2,-8(fp)
 8401a8c:	e0fffa03 	ldbu	r3,-24(fp)
 8401a90:	10c00005 	stb	r3,0(r2)
}
 8401a94:	0001883a 	nop
 8401a98:	e037883a 	mov	sp,fp
 8401a9c:	dfc00117 	ldw	ra,4(sp)
 8401aa0:	df000017 	ldw	fp,0(sp)
 8401aa4:	dec00204 	addi	sp,sp,8
 8401aa8:	f800283a 	ret

08401aac <I2CL_Write>:

////////////////////////////////////////////////////////////////
////////////////////////////////////////////////////////////////
////////////////////////////////////////////////////////////////
// size > 2Kbits
bool I2CL_Write(alt_u32 clk_base, alt_u32 data_base, alt_8 DeviceAddr, alt_u16 ControlAddr, alt_u8 ControlData){
 8401aac:	defff704 	addi	sp,sp,-36
 8401ab0:	dfc00815 	stw	ra,32(sp)
 8401ab4:	df000715 	stw	fp,28(sp)
 8401ab8:	df000704 	addi	fp,sp,28
 8401abc:	e13ffb15 	stw	r4,-20(fp)
 8401ac0:	e17ffc15 	stw	r5,-16(fp)
 8401ac4:	3009883a 	mov	r4,r6
 8401ac8:	3807883a 	mov	r3,r7
 8401acc:	e0800217 	ldw	r2,8(fp)
 8401ad0:	e13ffd05 	stb	r4,-12(fp)
 8401ad4:	e0fffe0d 	sth	r3,-8(fp)
 8401ad8:	e0bfff05 	stb	r2,-4(fp)
    bool bSuccess = TRUE;
 8401adc:	00800044 	movi	r2,1
 8401ae0:	e0bff915 	stw	r2,-28(fp)
    alt_u8 AddrHigh, AddrLow;
    
    AddrHigh = (ControlAddr >> 8) & 0xFF; 
 8401ae4:	e0bffe0b 	ldhu	r2,-8(fp)
 8401ae8:	1004d23a 	srli	r2,r2,8
 8401aec:	e0bffa05 	stb	r2,-24(fp)
    AddrLow  = ControlAddr & 0xFF; 
 8401af0:	e0bffe0b 	ldhu	r2,-8(fp)
 8401af4:	e0bffa45 	stb	r2,-23(fp)
    
    // device id
    //DeviceAddr = HMB_E2_I2C_ID;

    i2c_start(clk_base, data_base);
 8401af8:	e17ffc17 	ldw	r5,-16(fp)
 8401afc:	e13ffb17 	ldw	r4,-20(fp)
 8401b00:	84016ec0 	call	84016ec <i2c_start>
    if (!i2c_write(clk_base, data_base, DeviceAddr)){  // send ID
 8401b04:	e0bffd03 	ldbu	r2,-12(fp)
 8401b08:	10803fcc 	andi	r2,r2,255
 8401b0c:	100d883a 	mov	r6,r2
 8401b10:	e17ffc17 	ldw	r5,-16(fp)
 8401b14:	e13ffb17 	ldw	r4,-20(fp)
 8401b18:	84017f00 	call	84017f0 <i2c_write>
 8401b1c:	1000041e 	bne	r2,zero,8401b30 <I2CL_Write+0x84>
        bSuccess = FALSE;
 8401b20:	e03ff915 	stw	zero,-28(fp)
        I2C_DEBUG(("I2C HMB_E2 Fail: Address NACK!\n"));
 8401b24:	01021134 	movhi	r4,2116
 8401b28:	2113a104 	addi	r4,r4,20100
 8401b2c:	8402abc0 	call	8402abc <myprintf>
    }
    if (bSuccess && !i2c_write(clk_base, data_base, AddrHigh)){ // send sub-address
 8401b30:	e0bff917 	ldw	r2,-28(fp)
 8401b34:	10000a26 	beq	r2,zero,8401b60 <I2CL_Write+0xb4>
 8401b38:	e0bffa03 	ldbu	r2,-24(fp)
 8401b3c:	100d883a 	mov	r6,r2
 8401b40:	e17ffc17 	ldw	r5,-16(fp)
 8401b44:	e13ffb17 	ldw	r4,-20(fp)
 8401b48:	84017f00 	call	84017f0 <i2c_write>
 8401b4c:	1000041e 	bne	r2,zero,8401b60 <I2CL_Write+0xb4>
        bSuccess = FALSE;
 8401b50:	e03ff915 	stw	zero,-28(fp)
        I2C_DEBUG(("I2C HMB_E2 Fail: SubAddress-high NACK!\n"));
 8401b54:	01021134 	movhi	r4,2116
 8401b58:	2113ff04 	addi	r4,r4,20476
 8401b5c:	8402abc0 	call	8402abc <myprintf>
    }            
    if (bSuccess && !i2c_write(clk_base, data_base, AddrLow)){ // send sub-address
 8401b60:	e0bff917 	ldw	r2,-28(fp)
 8401b64:	10000a26 	beq	r2,zero,8401b90 <I2CL_Write+0xe4>
 8401b68:	e0bffa43 	ldbu	r2,-23(fp)
 8401b6c:	100d883a 	mov	r6,r2
 8401b70:	e17ffc17 	ldw	r5,-16(fp)
 8401b74:	e13ffb17 	ldw	r4,-20(fp)
 8401b78:	84017f00 	call	84017f0 <i2c_write>
 8401b7c:	1000041e 	bne	r2,zero,8401b90 <I2CL_Write+0xe4>
        bSuccess = FALSE;
 8401b80:	e03ff915 	stw	zero,-28(fp)
        I2C_DEBUG(("I2C HMB_E2 Fail: SubAddress-low NACK!\n"));
 8401b84:	01021134 	movhi	r4,2116
 8401b88:	21140904 	addi	r4,r4,20516
 8401b8c:	8402abc0 	call	8402abc <myprintf>
    }            
    if (bSuccess && !i2c_write(clk_base, data_base, ControlData)){  
 8401b90:	e0bff917 	ldw	r2,-28(fp)
 8401b94:	10000a26 	beq	r2,zero,8401bc0 <I2CL_Write+0x114>
 8401b98:	e0bfff03 	ldbu	r2,-4(fp)
 8401b9c:	100d883a 	mov	r6,r2
 8401ba0:	e17ffc17 	ldw	r5,-16(fp)
 8401ba4:	e13ffb17 	ldw	r4,-20(fp)
 8401ba8:	84017f00 	call	84017f0 <i2c_write>
 8401bac:	1000041e 	bne	r2,zero,8401bc0 <I2CL_Write+0x114>
        bSuccess = FALSE;
 8401bb0:	e03ff915 	stw	zero,-28(fp)
        I2C_DEBUG(("I2C HMB_E2 Fail: write NACK!\n"));
 8401bb4:	01021134 	movhi	r4,2116
 8401bb8:	2113b204 	addi	r4,r4,20168
 8401bbc:	8402abc0 	call	8402abc <myprintf>
    }
    i2c_stop(clk_base, data_base);
 8401bc0:	e17ffc17 	ldw	r5,-16(fp)
 8401bc4:	e13ffb17 	ldw	r4,-20(fp)
 8401bc8:	84017780 	call	8401778 <i2c_stop>
    
    usleep(7*1000); // delay to wait EE2 ready (at least 5 ms delay is required)
 8401bcc:	0106d604 	movi	r4,7000
 8401bd0:	841a2180 	call	841a218 <usleep>
    
    return bSuccess;
 8401bd4:	e0bff917 	ldw	r2,-28(fp)
    
}
 8401bd8:	e037883a 	mov	sp,fp
 8401bdc:	dfc00117 	ldw	ra,4(sp)
 8401be0:	df000017 	ldw	fp,0(sp)
 8401be4:	dec00204 	addi	sp,sp,8
 8401be8:	f800283a 	ret

08401bec <I2CL_Read>:

bool I2CL_Read(alt_u32 clk_base, alt_u32 data_base, alt_8 DeviceAddr, alt_u16 ControlAddr, alt_u8 *pControlData){
 8401bec:	defff804 	addi	sp,sp,-32
 8401bf0:	dfc00715 	stw	ra,28(sp)
 8401bf4:	df000615 	stw	fp,24(sp)
 8401bf8:	df000604 	addi	fp,sp,24
 8401bfc:	e13ffc15 	stw	r4,-16(fp)
 8401c00:	e17ffd15 	stw	r5,-12(fp)
 8401c04:	3007883a 	mov	r3,r6
 8401c08:	3805883a 	mov	r2,r7
 8401c0c:	e0fffe05 	stb	r3,-8(fp)
 8401c10:	e0bfff0d 	sth	r2,-4(fp)
    bool bSuccess = TRUE;
 8401c14:	00800044 	movi	r2,1
 8401c18:	e0bffa15 	stw	r2,-24(fp)
    alt_u8 AddrHigh, AddrLow;
    
    AddrHigh = (ControlAddr >> 8) & 0xFF; 
 8401c1c:	e0bfff0b 	ldhu	r2,-4(fp)
 8401c20:	1004d23a 	srli	r2,r2,8
 8401c24:	e0bffb05 	stb	r2,-20(fp)
    AddrLow  = ControlAddr & 0xFF; 
 8401c28:	e0bfff0b 	ldhu	r2,-4(fp)
 8401c2c:	e0bffb45 	stb	r2,-19(fp)

    i2c_start(clk_base, data_base);
 8401c30:	e17ffd17 	ldw	r5,-12(fp)
 8401c34:	e13ffc17 	ldw	r4,-16(fp)
 8401c38:	84016ec0 	call	84016ec <i2c_start>
    if (!i2c_write(clk_base, data_base, DeviceAddr)){  // send ID
 8401c3c:	e0bffe03 	ldbu	r2,-8(fp)
 8401c40:	10803fcc 	andi	r2,r2,255
 8401c44:	100d883a 	mov	r6,r2
 8401c48:	e17ffd17 	ldw	r5,-12(fp)
 8401c4c:	e13ffc17 	ldw	r4,-16(fp)
 8401c50:	84017f00 	call	84017f0 <i2c_write>
 8401c54:	1000041e 	bne	r2,zero,8401c68 <I2CL_Read+0x7c>
        bSuccess = FALSE;
 8401c58:	e03ffa15 	stw	zero,-24(fp)
        I2C_DEBUG(("I2C HMB_E2 Fail: Address NACK!\n"));
 8401c5c:	01021134 	movhi	r4,2116
 8401c60:	2113a104 	addi	r4,r4,20100
 8401c64:	8402abc0 	call	8402abc <myprintf>
    }
    if (bSuccess && !i2c_write(clk_base, data_base, AddrHigh)){ // send sub-address
 8401c68:	e0bffa17 	ldw	r2,-24(fp)
 8401c6c:	10000a26 	beq	r2,zero,8401c98 <I2CL_Read+0xac>
 8401c70:	e0bffb03 	ldbu	r2,-20(fp)
 8401c74:	100d883a 	mov	r6,r2
 8401c78:	e17ffd17 	ldw	r5,-12(fp)
 8401c7c:	e13ffc17 	ldw	r4,-16(fp)
 8401c80:	84017f00 	call	84017f0 <i2c_write>
 8401c84:	1000041e 	bne	r2,zero,8401c98 <I2CL_Read+0xac>
        bSuccess = FALSE;
 8401c88:	e03ffa15 	stw	zero,-24(fp)
        I2C_DEBUG(("I2C HMB_E2 Fail: SubAddress-high NACK!\n"));
 8401c8c:	01021134 	movhi	r4,2116
 8401c90:	2113ff04 	addi	r4,r4,20476
 8401c94:	8402abc0 	call	8402abc <myprintf>
    }            
    if (bSuccess && !i2c_write(clk_base, data_base, AddrLow)){ // send sub-address
 8401c98:	e0bffa17 	ldw	r2,-24(fp)
 8401c9c:	10000a26 	beq	r2,zero,8401cc8 <I2CL_Read+0xdc>
 8401ca0:	e0bffb43 	ldbu	r2,-19(fp)
 8401ca4:	100d883a 	mov	r6,r2
 8401ca8:	e17ffd17 	ldw	r5,-12(fp)
 8401cac:	e13ffc17 	ldw	r4,-16(fp)
 8401cb0:	84017f00 	call	84017f0 <i2c_write>
 8401cb4:	1000041e 	bne	r2,zero,8401cc8 <I2CL_Read+0xdc>
        bSuccess = FALSE;
 8401cb8:	e03ffa15 	stw	zero,-24(fp)
        I2C_DEBUG(("I2C HMB_E2 Fail: SubAddress-low NACK!\n"));
 8401cbc:	01021134 	movhi	r4,2116
 8401cc0:	21140904 	addi	r4,r4,20516
 8401cc4:	8402abc0 	call	8402abc <myprintf>
    }            
    i2c_start(clk_base, data_base);  // restart
 8401cc8:	e17ffd17 	ldw	r5,-12(fp)
 8401ccc:	e13ffc17 	ldw	r4,-16(fp)
 8401cd0:	84016ec0 	call	84016ec <i2c_start>
    DeviceAddr |= 1; // Read
 8401cd4:	e0bffe03 	ldbu	r2,-8(fp)
 8401cd8:	10800054 	ori	r2,r2,1
 8401cdc:	e0bffe05 	stb	r2,-8(fp)
    if (bSuccess && !i2c_write(clk_base, data_base, DeviceAddr)){  // send id
 8401ce0:	e0bffa17 	ldw	r2,-24(fp)
 8401ce4:	10000b26 	beq	r2,zero,8401d14 <I2CL_Read+0x128>
 8401ce8:	e0bffe03 	ldbu	r2,-8(fp)
 8401cec:	10803fcc 	andi	r2,r2,255
 8401cf0:	100d883a 	mov	r6,r2
 8401cf4:	e17ffd17 	ldw	r5,-12(fp)
 8401cf8:	e13ffc17 	ldw	r4,-16(fp)
 8401cfc:	84017f00 	call	84017f0 <i2c_write>
 8401d00:	1000041e 	bne	r2,zero,8401d14 <I2CL_Read+0x128>
        bSuccess = FALSE;
 8401d04:	e03ffa15 	stw	zero,-24(fp)
        I2C_DEBUG(("I2C HMB_E2 Fail: Address+1 NACK!\n"));
 8401d08:	01021134 	movhi	r4,2116
 8401d0c:	2113d504 	addi	r4,r4,20308
 8401d10:	8402abc0 	call	8402abc <myprintf>
    }
    
    if (bSuccess){
 8401d14:	e0bffa17 	ldw	r2,-24(fp)
 8401d18:	10000526 	beq	r2,zero,8401d30 <I2CL_Read+0x144>
        i2c_read(clk_base, data_base, pControlData, FALSE);  // read
 8401d1c:	000f883a 	mov	r7,zero
 8401d20:	e1800217 	ldw	r6,8(fp)
 8401d24:	e17ffd17 	ldw	r5,-12(fp)
 8401d28:	e13ffc17 	ldw	r4,-16(fp)
 8401d2c:	84019540 	call	8401954 <i2c_read>
    }        
    i2c_stop(clk_base, data_base);
 8401d30:	e17ffd17 	ldw	r5,-12(fp)
 8401d34:	e13ffc17 	ldw	r4,-16(fp)
 8401d38:	84017780 	call	8401778 <i2c_stop>
    
    return bSuccess;    
 8401d3c:	e0bffa17 	ldw	r2,-24(fp)
}
 8401d40:	e037883a 	mov	sp,fp
 8401d44:	dfc00117 	ldw	ra,4(sp)
 8401d48:	df000017 	ldw	fp,0(sp)
 8401d4c:	dec00204 	addi	sp,sp,8
 8401d50:	f800283a 	ret

08401d54 <I2CL_MultipleRead>:

// read from address 0
bool I2CL_MultipleRead(alt_u32 clk_base, alt_u32 data_base, alt_8 DeviceAddr, alt_u16 ControlAddr, alt_u8 szData[], alt_u16 len){
 8401d54:	defff604 	addi	sp,sp,-40
 8401d58:	dfc00915 	stw	ra,36(sp)
 8401d5c:	df000815 	stw	fp,32(sp)
 8401d60:	df000804 	addi	fp,sp,32
 8401d64:	e13ffb15 	stw	r4,-20(fp)
 8401d68:	e17ffc15 	stw	r5,-16(fp)
 8401d6c:	3009883a 	mov	r4,r6
 8401d70:	3807883a 	mov	r3,r7
 8401d74:	e0800317 	ldw	r2,12(fp)
 8401d78:	e13ffd05 	stb	r4,-12(fp)
 8401d7c:	e0fffe0d 	sth	r3,-8(fp)
 8401d80:	e0bfff0d 	sth	r2,-4(fp)
    int i;
    bool bSuccess = TRUE;
 8401d84:	00800044 	movi	r2,1
 8401d88:	e0bff915 	stw	r2,-28(fp)
  // alt_u8 ControlAddr = 0;
    alt_u8 AddrHigh, AddrLow;
    
    AddrHigh = (ControlAddr >> 8) & 0xFF; 
 8401d8c:	e0bffe0b 	ldhu	r2,-8(fp)
 8401d90:	1004d23a 	srli	r2,r2,8
 8401d94:	e0bffa05 	stb	r2,-24(fp)
    AddrLow  = ControlAddr & 0xFF;     
 8401d98:	e0bffe0b 	ldhu	r2,-8(fp)
 8401d9c:	e0bffa45 	stb	r2,-23(fp)
    
   
    // device id
    //DeviceAddr = HMB_E2_I2C_ID;

    i2c_start(clk_base, data_base);
 8401da0:	e17ffc17 	ldw	r5,-16(fp)
 8401da4:	e13ffb17 	ldw	r4,-20(fp)
 8401da8:	84016ec0 	call	84016ec <i2c_start>
    if (!i2c_write(clk_base, data_base, DeviceAddr)){  // send ID
 8401dac:	e0bffd03 	ldbu	r2,-12(fp)
 8401db0:	10803fcc 	andi	r2,r2,255
 8401db4:	100d883a 	mov	r6,r2
 8401db8:	e17ffc17 	ldw	r5,-16(fp)
 8401dbc:	e13ffb17 	ldw	r4,-20(fp)
 8401dc0:	84017f00 	call	84017f0 <i2c_write>
 8401dc4:	1000041e 	bne	r2,zero,8401dd8 <I2CL_MultipleRead+0x84>
        bSuccess = FALSE;
 8401dc8:	e03ff915 	stw	zero,-28(fp)
        I2C_DEBUG(("I2C HMB_E2 Fail: Address NACK!\n"));
 8401dcc:	01021134 	movhi	r4,2116
 8401dd0:	2113a104 	addi	r4,r4,20100
 8401dd4:	8402abc0 	call	8402abc <myprintf>
    }
    if (bSuccess && !i2c_write(clk_base, data_base, AddrHigh)){ // send sub-address
 8401dd8:	e0bff917 	ldw	r2,-28(fp)
 8401ddc:	10000a26 	beq	r2,zero,8401e08 <I2CL_MultipleRead+0xb4>
 8401de0:	e0bffa03 	ldbu	r2,-24(fp)
 8401de4:	100d883a 	mov	r6,r2
 8401de8:	e17ffc17 	ldw	r5,-16(fp)
 8401dec:	e13ffb17 	ldw	r4,-20(fp)
 8401df0:	84017f00 	call	84017f0 <i2c_write>
 8401df4:	1000041e 	bne	r2,zero,8401e08 <I2CL_MultipleRead+0xb4>
        bSuccess = FALSE;
 8401df8:	e03ff915 	stw	zero,-28(fp)
        I2C_DEBUG(("I2C HMB_E2 Fail: SubAddress-high NACK!\n"));
 8401dfc:	01021134 	movhi	r4,2116
 8401e00:	2113ff04 	addi	r4,r4,20476
 8401e04:	8402abc0 	call	8402abc <myprintf>
    }    
    if (bSuccess && !i2c_write(clk_base, data_base, AddrLow)){ // send sub-address
 8401e08:	e0bff917 	ldw	r2,-28(fp)
 8401e0c:	10000a26 	beq	r2,zero,8401e38 <I2CL_MultipleRead+0xe4>
 8401e10:	e0bffa43 	ldbu	r2,-23(fp)
 8401e14:	100d883a 	mov	r6,r2
 8401e18:	e17ffc17 	ldw	r5,-16(fp)
 8401e1c:	e13ffb17 	ldw	r4,-20(fp)
 8401e20:	84017f00 	call	84017f0 <i2c_write>
 8401e24:	1000041e 	bne	r2,zero,8401e38 <I2CL_MultipleRead+0xe4>
        bSuccess = FALSE;
 8401e28:	e03ff915 	stw	zero,-28(fp)
        I2C_DEBUG(("I2C HMB_E2 Fail: SubAddress-low NACK!\n"));
 8401e2c:	01021134 	movhi	r4,2116
 8401e30:	21140904 	addi	r4,r4,20516
 8401e34:	8402abc0 	call	8402abc <myprintf>
    }    
    if (bSuccess)        
 8401e38:	e0bff917 	ldw	r2,-28(fp)
 8401e3c:	10000326 	beq	r2,zero,8401e4c <I2CL_MultipleRead+0xf8>
        i2c_start(clk_base, data_base);  // restart
 8401e40:	e17ffc17 	ldw	r5,-16(fp)
 8401e44:	e13ffb17 	ldw	r4,-20(fp)
 8401e48:	84016ec0 	call	84016ec <i2c_start>
    DeviceAddr |= 1; // Read
 8401e4c:	e0bffd03 	ldbu	r2,-12(fp)
 8401e50:	10800054 	ori	r2,r2,1
 8401e54:	e0bffd05 	stb	r2,-12(fp)
    if (bSuccess && !i2c_write(clk_base, data_base, DeviceAddr)){  // send id
 8401e58:	e0bff917 	ldw	r2,-28(fp)
 8401e5c:	10000b26 	beq	r2,zero,8401e8c <I2CL_MultipleRead+0x138>
 8401e60:	e0bffd03 	ldbu	r2,-12(fp)
 8401e64:	10803fcc 	andi	r2,r2,255
 8401e68:	100d883a 	mov	r6,r2
 8401e6c:	e17ffc17 	ldw	r5,-16(fp)
 8401e70:	e13ffb17 	ldw	r4,-20(fp)
 8401e74:	84017f00 	call	84017f0 <i2c_write>
 8401e78:	1000041e 	bne	r2,zero,8401e8c <I2CL_MultipleRead+0x138>
        bSuccess = FALSE;
 8401e7c:	e03ff915 	stw	zero,-28(fp)
        I2C_DEBUG(("I2CL_MultipleRead Fail: Address+1 NACK!\n"));
 8401e80:	01021134 	movhi	r4,2116
 8401e84:	21141304 	addi	r4,r4,20556
 8401e88:	8402abc0 	call	8402abc <myprintf>
    }
    
    if (bSuccess){
 8401e8c:	e0bff917 	ldw	r2,-28(fp)
 8401e90:	10001726 	beq	r2,zero,8401ef0 <I2CL_MultipleRead+0x19c>
        for(i=0;i<len && bSuccess;i++){
 8401e94:	e03ff815 	stw	zero,-32(fp)
 8401e98:	00001006 	br	8401edc <I2CL_MultipleRead+0x188>
            i2c_read(clk_base, data_base, &szData[i], (i==(len-1))?FALSE:TRUE);  // read
 8401e9c:	e0bff817 	ldw	r2,-32(fp)
 8401ea0:	e0c00217 	ldw	r3,8(fp)
 8401ea4:	1889883a 	add	r4,r3,r2
 8401ea8:	e0bfff0b 	ldhu	r2,-4(fp)
 8401eac:	10ffffc4 	addi	r3,r2,-1
 8401eb0:	e0bff817 	ldw	r2,-32(fp)
 8401eb4:	1884c03a 	cmpne	r2,r3,r2
 8401eb8:	10803fcc 	andi	r2,r2,255
 8401ebc:	100f883a 	mov	r7,r2
 8401ec0:	200d883a 	mov	r6,r4
 8401ec4:	e17ffc17 	ldw	r5,-16(fp)
 8401ec8:	e13ffb17 	ldw	r4,-20(fp)
 8401ecc:	84019540 	call	8401954 <i2c_read>
        bSuccess = FALSE;
        I2C_DEBUG(("I2CL_MultipleRead Fail: Address+1 NACK!\n"));
    }
    
    if (bSuccess){
        for(i=0;i<len && bSuccess;i++){
 8401ed0:	e0bff817 	ldw	r2,-32(fp)
 8401ed4:	10800044 	addi	r2,r2,1
 8401ed8:	e0bff815 	stw	r2,-32(fp)
 8401edc:	e0bfff0b 	ldhu	r2,-4(fp)
 8401ee0:	e0fff817 	ldw	r3,-32(fp)
 8401ee4:	1880020e 	bge	r3,r2,8401ef0 <I2CL_MultipleRead+0x19c>
 8401ee8:	e0bff917 	ldw	r2,-28(fp)
 8401eec:	103feb1e 	bne	r2,zero,8401e9c <__alt_data_end+0xfc401e9c>
            i2c_read(clk_base, data_base, &szData[i], (i==(len-1))?FALSE:TRUE);  // read
        }            
    }        
    i2c_stop(clk_base, data_base);
 8401ef0:	e17ffc17 	ldw	r5,-16(fp)
 8401ef4:	e13ffb17 	ldw	r4,-20(fp)
 8401ef8:	84017780 	call	8401778 <i2c_stop>
    
    return bSuccess;    
 8401efc:	e0bff917 	ldw	r2,-28(fp)
    
} 
 8401f00:	e037883a 	mov	sp,fp
 8401f04:	dfc00117 	ldw	ra,4(sp)
 8401f08:	df000017 	ldw	fp,0(sp)
 8401f0c:	dec00204 	addi	sp,sp,8
 8401f10:	f800283a 	ret

08401f14 <I2CL_MultipleWrite>:



bool I2CL_MultipleWrite(alt_u32 clk_base, alt_u32 data_base, alt_8 DeviceAddr, alt_u16 ControlAddr, alt_u8 szData[], alt_u16 len){
 8401f14:	defff604 	addi	sp,sp,-40
 8401f18:	dfc00915 	stw	ra,36(sp)
 8401f1c:	df000815 	stw	fp,32(sp)
 8401f20:	df000804 	addi	fp,sp,32
 8401f24:	e13ffb15 	stw	r4,-20(fp)
 8401f28:	e17ffc15 	stw	r5,-16(fp)
 8401f2c:	3009883a 	mov	r4,r6
 8401f30:	3807883a 	mov	r3,r7
 8401f34:	e0800317 	ldw	r2,12(fp)
 8401f38:	e13ffd05 	stb	r4,-12(fp)
 8401f3c:	e0fffe0d 	sth	r3,-8(fp)
 8401f40:	e0bfff0d 	sth	r2,-4(fp)
    bool bSuccess = TRUE;
 8401f44:	00800044 	movi	r2,1
 8401f48:	e0bff815 	stw	r2,-32(fp)
    alt_u8 AddrHigh, AddrLow;
    int i;
    
    AddrHigh = (ControlAddr >> 8) & 0xFF; 
 8401f4c:	e0bffe0b 	ldhu	r2,-8(fp)
 8401f50:	1004d23a 	srli	r2,r2,8
 8401f54:	e0bffa05 	stb	r2,-24(fp)
    AddrLow  = ControlAddr & 0xFF; 
 8401f58:	e0bffe0b 	ldhu	r2,-8(fp)
 8401f5c:	e0bffa45 	stb	r2,-23(fp)
    

    i2c_start(clk_base, data_base);
 8401f60:	e17ffc17 	ldw	r5,-16(fp)
 8401f64:	e13ffb17 	ldw	r4,-20(fp)
 8401f68:	84016ec0 	call	84016ec <i2c_start>
    if (!i2c_write(clk_base, data_base, DeviceAddr)){  // send ID
 8401f6c:	e0bffd03 	ldbu	r2,-12(fp)
 8401f70:	10803fcc 	andi	r2,r2,255
 8401f74:	100d883a 	mov	r6,r2
 8401f78:	e17ffc17 	ldw	r5,-16(fp)
 8401f7c:	e13ffb17 	ldw	r4,-20(fp)
 8401f80:	84017f00 	call	84017f0 <i2c_write>
 8401f84:	1000041e 	bne	r2,zero,8401f98 <I2CL_MultipleWrite+0x84>
        bSuccess = FALSE;
 8401f88:	e03ff815 	stw	zero,-32(fp)
        I2C_DEBUG(("I2C HMB_E2 Fail: Address NACK!\n"));
 8401f8c:	01021134 	movhi	r4,2116
 8401f90:	2113a104 	addi	r4,r4,20100
 8401f94:	8402abc0 	call	8402abc <myprintf>
    }
    if (bSuccess && !i2c_write(clk_base, data_base, AddrHigh)){ // send sub-address
 8401f98:	e0bff817 	ldw	r2,-32(fp)
 8401f9c:	10000a26 	beq	r2,zero,8401fc8 <I2CL_MultipleWrite+0xb4>
 8401fa0:	e0bffa03 	ldbu	r2,-24(fp)
 8401fa4:	100d883a 	mov	r6,r2
 8401fa8:	e17ffc17 	ldw	r5,-16(fp)
 8401fac:	e13ffb17 	ldw	r4,-20(fp)
 8401fb0:	84017f00 	call	84017f0 <i2c_write>
 8401fb4:	1000041e 	bne	r2,zero,8401fc8 <I2CL_MultipleWrite+0xb4>
        bSuccess = FALSE;
 8401fb8:	e03ff815 	stw	zero,-32(fp)
        I2C_DEBUG(("I2C HMB_E2 Fail: SubAddress-high NACK!\n"));
 8401fbc:	01021134 	movhi	r4,2116
 8401fc0:	2113ff04 	addi	r4,r4,20476
 8401fc4:	8402abc0 	call	8402abc <myprintf>
    }            
    if (bSuccess && !i2c_write(clk_base, data_base, AddrLow)){ // send sub-address
 8401fc8:	e0bff817 	ldw	r2,-32(fp)
 8401fcc:	10000a26 	beq	r2,zero,8401ff8 <I2CL_MultipleWrite+0xe4>
 8401fd0:	e0bffa43 	ldbu	r2,-23(fp)
 8401fd4:	100d883a 	mov	r6,r2
 8401fd8:	e17ffc17 	ldw	r5,-16(fp)
 8401fdc:	e13ffb17 	ldw	r4,-20(fp)
 8401fe0:	84017f00 	call	84017f0 <i2c_write>
 8401fe4:	1000041e 	bne	r2,zero,8401ff8 <I2CL_MultipleWrite+0xe4>
        bSuccess = FALSE;
 8401fe8:	e03ff815 	stw	zero,-32(fp)
        I2C_DEBUG(("I2C HMB_E2 Fail: SubAddress-low NACK!\n"));
 8401fec:	01021134 	movhi	r4,2116
 8401ff0:	21140904 	addi	r4,r4,20516
 8401ff4:	8402abc0 	call	8402abc <myprintf>
    }            
    if (bSuccess){// && !i2c_write(clk_base, data_base, ControlData)){
 8401ff8:	e0bff817 	ldw	r2,-32(fp)
 8401ffc:	10001926 	beq	r2,zero,8402064 <I2CL_MultipleWrite+0x150>
        for(i=0;i<len && bSuccess;i++){
 8402000:	e03ff915 	stw	zero,-28(fp)
 8402004:	00000d06 	br	840203c <I2CL_MultipleWrite+0x128>
            bSuccess = i2c_write(clk_base, data_base, szData[i]);
 8402008:	e0bff917 	ldw	r2,-28(fp)
 840200c:	e0c00217 	ldw	r3,8(fp)
 8402010:	1885883a 	add	r2,r3,r2
 8402014:	10800003 	ldbu	r2,0(r2)
 8402018:	10803fcc 	andi	r2,r2,255
 840201c:	100d883a 	mov	r6,r2
 8402020:	e17ffc17 	ldw	r5,-16(fp)
 8402024:	e13ffb17 	ldw	r4,-20(fp)
 8402028:	84017f00 	call	84017f0 <i2c_write>
 840202c:	e0bff815 	stw	r2,-32(fp)
    if (bSuccess && !i2c_write(clk_base, data_base, AddrLow)){ // send sub-address
        bSuccess = FALSE;
        I2C_DEBUG(("I2C HMB_E2 Fail: SubAddress-low NACK!\n"));
    }            
    if (bSuccess){// && !i2c_write(clk_base, data_base, ControlData)){
        for(i=0;i<len && bSuccess;i++){
 8402030:	e0bff917 	ldw	r2,-28(fp)
 8402034:	10800044 	addi	r2,r2,1
 8402038:	e0bff915 	stw	r2,-28(fp)
 840203c:	e0bfff0b 	ldhu	r2,-4(fp)
 8402040:	e0fff917 	ldw	r3,-28(fp)
 8402044:	1880020e 	bge	r3,r2,8402050 <I2CL_MultipleWrite+0x13c>
 8402048:	e0bff817 	ldw	r2,-32(fp)
 840204c:	103fee1e 	bne	r2,zero,8402008 <__alt_data_end+0xfc402008>
            bSuccess = i2c_write(clk_base, data_base, szData[i]);
        }  
        //bSuccess = FALSE;
        if (!bSuccess)
 8402050:	e0bff817 	ldw	r2,-32(fp)
 8402054:	1000031e 	bne	r2,zero,8402064 <I2CL_MultipleWrite+0x150>
            I2C_DEBUG(("I2C HMB_E2 Fail: write NACK!\n"));
 8402058:	01021134 	movhi	r4,2116
 840205c:	2113b204 	addi	r4,r4,20168
 8402060:	8402abc0 	call	8402abc <myprintf>
    }
    i2c_stop(clk_base, data_base);
 8402064:	e17ffc17 	ldw	r5,-16(fp)
 8402068:	e13ffb17 	ldw	r4,-20(fp)
 840206c:	84017780 	call	8401778 <i2c_stop>
    
    usleep(7*1000); // delay to wait EE2 ready (at least 5 ms delay is required)
 8402070:	0106d604 	movi	r4,7000
 8402074:	841a2180 	call	841a218 <usleep>
    
    return bSuccess;
 8402078:	e0bff817 	ldw	r2,-32(fp)
    
}
 840207c:	e037883a 	mov	sp,fp
 8402080:	dfc00117 	ldw	ra,4(sp)
 8402084:	df000017 	ldw	fp,0(sp)
 8402088:	dec00204 	addi	sp,sp,8
 840208c:	f800283a 	ret

08402090 <I2CL_Read16>:
 


bool I2CL_Read16(alt_u32 clk_base, alt_u32 data_base, alt_8 DeviceAddr, alt_u16 ControlAddr, alt_u16 *pControlData){
 8402090:	defff604 	addi	sp,sp,-40
 8402094:	dfc00915 	stw	ra,36(sp)
 8402098:	df000815 	stw	fp,32(sp)
 840209c:	df000804 	addi	fp,sp,32
 84020a0:	e13ffc15 	stw	r4,-16(fp)
 84020a4:	e17ffd15 	stw	r5,-12(fp)
 84020a8:	3007883a 	mov	r3,r6
 84020ac:	3805883a 	mov	r2,r7
 84020b0:	e0fffe05 	stb	r3,-8(fp)
 84020b4:	e0bfff0d 	sth	r2,-4(fp)
    bool bSuccess;
    alt_u8 szData[2];
    bSuccess = I2CL_MultipleRead(clk_base, data_base, DeviceAddr, ControlAddr, szData, sizeof(szData));
 84020b8:	e0fffe07 	ldb	r3,-8(fp)
 84020bc:	e13fff0b 	ldhu	r4,-4(fp)
 84020c0:	00800084 	movi	r2,2
 84020c4:	d8800115 	stw	r2,4(sp)
 84020c8:	e0bffb04 	addi	r2,fp,-20
 84020cc:	d8800015 	stw	r2,0(sp)
 84020d0:	200f883a 	mov	r7,r4
 84020d4:	180d883a 	mov	r6,r3
 84020d8:	e17ffd17 	ldw	r5,-12(fp)
 84020dc:	e13ffc17 	ldw	r4,-16(fp)
 84020e0:	8401d540 	call	8401d54 <I2CL_MultipleRead>
 84020e4:	e0bffa15 	stw	r2,-24(fp)
    if (bSuccess){
 84020e8:	e0bffa17 	ldw	r2,-24(fp)
 84020ec:	10000a26 	beq	r2,zero,8402118 <I2CL_Read16+0x88>
        *pControlData = (szData[0] << 8 ) | szData[1];
 84020f0:	e0bffb03 	ldbu	r2,-20(fp)
 84020f4:	10803fcc 	andi	r2,r2,255
 84020f8:	1004923a 	slli	r2,r2,8
 84020fc:	1007883a 	mov	r3,r2
 8402100:	e0bffb43 	ldbu	r2,-19(fp)
 8402104:	10803fcc 	andi	r2,r2,255
 8402108:	1884b03a 	or	r2,r3,r2
 840210c:	1007883a 	mov	r3,r2
 8402110:	e0800217 	ldw	r2,8(fp)
 8402114:	10c0000d 	sth	r3,0(r2)
    }
    return bSuccess;    
 8402118:	e0bffa17 	ldw	r2,-24(fp)
}
 840211c:	e037883a 	mov	sp,fp
 8402120:	dfc00117 	ldw	ra,4(sp)
 8402124:	df000017 	ldw	fp,0(sp)
 8402128:	dec00204 	addi	sp,sp,8
 840212c:	f800283a 	ret

08402130 <I2CL_Write16>:

bool I2CL_Write16(alt_u32 clk_base, alt_u32 data_base, alt_8 DeviceAddr, alt_u16 ControlAddr, alt_u16 ControlData){
 8402130:	defff504 	addi	sp,sp,-44
 8402134:	dfc00a15 	stw	ra,40(sp)
 8402138:	df000915 	stw	fp,36(sp)
 840213c:	df000904 	addi	fp,sp,36
 8402140:	e13ffb15 	stw	r4,-20(fp)
 8402144:	e17ffc15 	stw	r5,-16(fp)
 8402148:	3009883a 	mov	r4,r6
 840214c:	3807883a 	mov	r3,r7
 8402150:	e0800217 	ldw	r2,8(fp)
 8402154:	e13ffd05 	stb	r4,-12(fp)
 8402158:	e0fffe0d 	sth	r3,-8(fp)
 840215c:	e0bfff0d 	sth	r2,-4(fp)
    bool bSuccess;
    alt_u8 szData[2];
    szData[0] = (ControlData >> 8) & 0xFF;
 8402160:	e0bfff0b 	ldhu	r2,-4(fp)
 8402164:	1004d23a 	srli	r2,r2,8
 8402168:	e0bffa05 	stb	r2,-24(fp)
    szData[1] = ControlData & 0xFF;   
 840216c:	e0bfff0b 	ldhu	r2,-4(fp)
 8402170:	e0bffa45 	stb	r2,-23(fp)
    bSuccess = I2CL_MultipleWrite(clk_base, data_base, DeviceAddr, ControlAddr, szData, sizeof(szData));
 8402174:	e0fffd07 	ldb	r3,-12(fp)
 8402178:	e13ffe0b 	ldhu	r4,-8(fp)
 840217c:	00800084 	movi	r2,2
 8402180:	d8800115 	stw	r2,4(sp)
 8402184:	e0bffa04 	addi	r2,fp,-24
 8402188:	d8800015 	stw	r2,0(sp)
 840218c:	200f883a 	mov	r7,r4
 8402190:	180d883a 	mov	r6,r3
 8402194:	e17ffc17 	ldw	r5,-16(fp)
 8402198:	e13ffb17 	ldw	r4,-20(fp)
 840219c:	8401f140 	call	8401f14 <I2CL_MultipleWrite>
 84021a0:	e0bff915 	stw	r2,-28(fp)
    return bSuccess;    
 84021a4:	e0bff917 	ldw	r2,-28(fp)
}
 84021a8:	e037883a 	mov	sp,fp
 84021ac:	dfc00117 	ldw	ra,4(sp)
 84021b0:	df000017 	ldw	fp,0(sp)
 84021b4:	dec00204 	addi	sp,sp,8
 84021b8:	f800283a 	ret

084021bc <Delay_Ms>:
#define BLUE 0x001f
#define BLACK  0x0000
#define WHITE 0xffff

void Delay_Ms(alt_u16 count_ms)
{
 84021bc:	defffd04 	addi	sp,sp,-12
 84021c0:	dfc00215 	stw	ra,8(sp)
 84021c4:	df000115 	stw	fp,4(sp)
 84021c8:	df000104 	addi	fp,sp,4
 84021cc:	2005883a 	mov	r2,r4
 84021d0:	e0bfff0d 	sth	r2,-4(fp)
    while(count_ms--)
 84021d4:	00000206 	br	84021e0 <Delay_Ms+0x24>
    {
        usleep(1000);
 84021d8:	0100fa04 	movi	r4,1000
 84021dc:	841a2180 	call	841a218 <usleep>
#define BLACK  0x0000
#define WHITE 0xffff

void Delay_Ms(alt_u16 count_ms)
{
    while(count_ms--)
 84021e0:	e0bfff0b 	ldhu	r2,-4(fp)
 84021e4:	10ffffc4 	addi	r3,r2,-1
 84021e8:	e0ffff0d 	sth	r3,-4(fp)
 84021ec:	10bfffcc 	andi	r2,r2,65535
 84021f0:	103ff91e 	bne	r2,zero,84021d8 <__alt_data_end+0xfc4021d8>
    {
        usleep(1000);
    }
}
 84021f4:	0001883a 	nop
 84021f8:	e037883a 	mov	sp,fp
 84021fc:	dfc00117 	ldw	ra,4(sp)
 8402200:	df000017 	ldw	fp,0(sp)
 8402204:	dec00204 	addi	sp,sp,8
 8402208:	f800283a 	ret

0840220c <LCD_SetCursor>:


void LCD_SetCursor(alt_u16 Xpos, alt_u16 Ypos)
{
 840220c:	defffd04 	addi	sp,sp,-12
 8402210:	df000215 	stw	fp,8(sp)
 8402214:	df000204 	addi	fp,sp,8
 8402218:	2007883a 	mov	r3,r4
 840221c:	2805883a 	mov	r2,r5
 8402220:	e0fffe0d 	sth	r3,-8(fp)
 8402224:	e0bfff0d 	sth	r2,-4(fp)
	 LCD_WR_REG(0x002A);
 8402228:	00c00a84 	movi	r3,42
 840222c:	00800404 	movi	r2,16
 8402230:	10c00035 	stwio	r3,0(r2)
		 LCD_WR_DATA(Xpos>>8);
 8402234:	e0bffe0b 	ldhu	r2,-8(fp)
 8402238:	1004d23a 	srli	r2,r2,8
 840223c:	10ffffcc 	andi	r3,r2,65535
 8402240:	00800504 	movi	r2,20
 8402244:	10c00035 	stwio	r3,0(r2)
		 LCD_WR_DATA(Xpos&0XFF);
 8402248:	e0bffe0b 	ldhu	r2,-8(fp)
 840224c:	10c03fcc 	andi	r3,r2,255
 8402250:	00800504 	movi	r2,20
 8402254:	10c00035 	stwio	r3,0(r2)
	 LCD_WR_REG(0x002B);
 8402258:	00c00ac4 	movi	r3,43
 840225c:	00800404 	movi	r2,16
 8402260:	10c00035 	stwio	r3,0(r2)
		 LCD_WR_DATA(Ypos>>8);
 8402264:	e0bfff0b 	ldhu	r2,-4(fp)
 8402268:	1004d23a 	srli	r2,r2,8
 840226c:	10ffffcc 	andi	r3,r2,65535
 8402270:	00800504 	movi	r2,20
 8402274:	10c00035 	stwio	r3,0(r2)
		 LCD_WR_DATA(Ypos&0XFF);
 8402278:	e0bfff0b 	ldhu	r2,-4(fp)
 840227c:	10c03fcc 	andi	r3,r2,255
 8402280:	00800504 	movi	r2,20
 8402284:	10c00035 	stwio	r3,0(r2)
	 LCD_WR_REG(0x002C);
 8402288:	00c00b04 	movi	r3,44
 840228c:	00800404 	movi	r2,16
 8402290:	10c00035 	stwio	r3,0(r2)
}
 8402294:	0001883a 	nop
 8402298:	e037883a 	mov	sp,fp
 840229c:	df000017 	ldw	fp,0(sp)
 84022a0:	dec00104 	addi	sp,sp,4
 84022a4:	f800283a 	ret

084022a8 <LCD_Clear>:

void LCD_Clear(alt_u16 Color)
{
 84022a8:	defffc04 	addi	sp,sp,-16
 84022ac:	dfc00315 	stw	ra,12(sp)
 84022b0:	df000215 	stw	fp,8(sp)
 84022b4:	df000204 	addi	fp,sp,8
 84022b8:	2005883a 	mov	r2,r4
 84022bc:	e0bfff0d 	sth	r2,-4(fp)
        alt_u32 index=0;
 84022c0:	e03ffe15 	stw	zero,-8(fp)
        LCD_SetCursor(0x00,0x0000);
 84022c4:	000b883a 	mov	r5,zero
 84022c8:	0009883a 	mov	r4,zero
 84022cc:	840220c0 	call	840220c <LCD_SetCursor>
        LCD_WR_REG(0x002C);
 84022d0:	00c00b04 	movi	r3,44
 84022d4:	00800404 	movi	r2,16
 84022d8:	10c00035 	stwio	r3,0(r2)
        for(index=0;index<76800;index++)
 84022dc:	e03ffe15 	stw	zero,-8(fp)
 84022e0:	00000606 	br	84022fc <LCD_Clear+0x54>
        {
        	LCD_WR_DATA(Color);
 84022e4:	e0ffff0b 	ldhu	r3,-4(fp)
 84022e8:	00800504 	movi	r2,20
 84022ec:	10c00035 	stwio	r3,0(r2)
void LCD_Clear(alt_u16 Color)
{
        alt_u32 index=0;
        LCD_SetCursor(0x00,0x0000);
        LCD_WR_REG(0x002C);
        for(index=0;index<76800;index++)
 84022f0:	e0bffe17 	ldw	r2,-8(fp)
 84022f4:	10800044 	addi	r2,r2,1
 84022f8:	e0bffe15 	stw	r2,-8(fp)
 84022fc:	e0fffe17 	ldw	r3,-8(fp)
 8402300:	00800074 	movhi	r2,1
 8402304:	108affc4 	addi	r2,r2,11263
 8402308:	10fff62e 	bgeu	r2,r3,84022e4 <__alt_data_end+0xfc4022e4>
        {
        	LCD_WR_DATA(Color);
        }
}
 840230c:	0001883a 	nop
 8402310:	e037883a 	mov	sp,fp
 8402314:	dfc00117 	ldw	ra,4(sp)
 8402318:	df000017 	ldw	fp,0(sp)
 840231c:	dec00204 	addi	sp,sp,8
 8402320:	f800283a 	ret

08402324 <LCD_DrawPoint>:

void LCD_DrawPoint(alt_u16 x,alt_u16 y,alt_u16 color )
{
 8402324:	defffb04 	addi	sp,sp,-20
 8402328:	dfc00415 	stw	ra,16(sp)
 840232c:	df000315 	stw	fp,12(sp)
 8402330:	df000304 	addi	fp,sp,12
 8402334:	2807883a 	mov	r3,r5
 8402338:	3005883a 	mov	r2,r6
 840233c:	e13ffd0d 	sth	r4,-12(fp)
 8402340:	e0fffe0d 	sth	r3,-8(fp)
 8402344:	e0bfff0d 	sth	r2,-4(fp)
        LCD_SetCursor(x,y);
 8402348:	e0bffd0b 	ldhu	r2,-12(fp)
 840234c:	e0fffe0b 	ldhu	r3,-8(fp)
 8402350:	180b883a 	mov	r5,r3
 8402354:	1009883a 	mov	r4,r2
 8402358:	840220c0 	call	840220c <LCD_SetCursor>
        LCD_WR_REG(0x002C);
 840235c:	00c00b04 	movi	r3,44
 8402360:	00800404 	movi	r2,16
 8402364:	10c00035 	stwio	r3,0(r2)
        LCD_WR_DATA(color);
 8402368:	e0ffff0b 	ldhu	r3,-4(fp)
 840236c:	00800504 	movi	r2,20
 8402370:	10c00035 	stwio	r3,0(r2)
}
 8402374:	0001883a 	nop
 8402378:	e037883a 	mov	sp,fp
 840237c:	dfc00117 	ldw	ra,4(sp)
 8402380:	df000017 	ldw	fp,0(sp)
 8402384:	dec00204 	addi	sp,sp,8
 8402388:	f800283a 	ret

0840238c <LCD_Init>:
        color=LCD_RD_DATA();
        return color;
}*/

void LCD_Init()
{
 840238c:	defffe04 	addi	sp,sp,-8
 8402390:	dfc00115 	stw	ra,4(sp)
 8402394:	df000015 	stw	fp,0(sp)
 8402398:	d839883a 	mov	fp,sp
	alt_u16 data1,data2;
	alt_u16 data3,data4;
	Set_LCD_RST;
 840239c:	00c00044 	movi	r3,1
 84023a0:	00804034 	movhi	r2,256
 84023a4:	10802404 	addi	r2,r2,144
 84023a8:	10c00035 	stwio	r3,0(r2)
	Delay_Ms(1);
 84023ac:	01000044 	movi	r4,1
 84023b0:	84021bc0 	call	84021bc <Delay_Ms>
	Clr_LCD_RST;
 84023b4:	0007883a 	mov	r3,zero
 84023b8:	00804034 	movhi	r2,256
 84023bc:	10802404 	addi	r2,r2,144
 84023c0:	10c00035 	stwio	r3,0(r2)
	Delay_Ms(10);       // Delay 10ms // This delay time is necessary
 84023c4:	01000284 	movi	r4,10
 84023c8:	84021bc0 	call	84021bc <Delay_Ms>
	Set_LCD_RST;
 84023cc:	00c00044 	movi	r3,1
 84023d0:	00804034 	movhi	r2,256
 84023d4:	10802404 	addi	r2,r2,144
 84023d8:	10c00035 	stwio	r3,0(r2)
	Delay_Ms(120);       // Delay 120 ms
 84023dc:	01001e04 	movi	r4,120
 84023e0:	84021bc0 	call	84021bc <Delay_Ms>
//	Clr_LCD_CS;



	LCD_WR_REG(0x0011); //Exit Sleep
 84023e4:	00c00444 	movi	r3,17
 84023e8:	00800404 	movi	r2,16
 84023ec:	10c00035 	stwio	r3,0(r2)
	LCD_WR_REG(0x00CF);
 84023f0:	00c033c4 	movi	r3,207
 84023f4:	00800404 	movi	r2,16
 84023f8:	10c00035 	stwio	r3,0(r2)
		LCD_WR_DATA(0x0000);
 84023fc:	0007883a 	mov	r3,zero
 8402400:	00800504 	movi	r2,20
 8402404:	10c00035 	stwio	r3,0(r2)
		LCD_WR_DATA(0x0081);
 8402408:	00c02044 	movi	r3,129
 840240c:	00800504 	movi	r2,20
 8402410:	10c00035 	stwio	r3,0(r2)
		LCD_WR_DATA(0X00c0);
 8402414:	00c03004 	movi	r3,192
 8402418:	00800504 	movi	r2,20
 840241c:	10c00035 	stwio	r3,0(r2)

	LCD_WR_REG(0x00ED);
 8402420:	00c03b44 	movi	r3,237
 8402424:	00800404 	movi	r2,16
 8402428:	10c00035 	stwio	r3,0(r2)
		LCD_WR_DATA(0x0064);
 840242c:	00c01904 	movi	r3,100
 8402430:	00800504 	movi	r2,20
 8402434:	10c00035 	stwio	r3,0(r2)
		LCD_WR_DATA(0x0003);
 8402438:	00c000c4 	movi	r3,3
 840243c:	00800504 	movi	r2,20
 8402440:	10c00035 	stwio	r3,0(r2)
		LCD_WR_DATA(0X0012);
 8402444:	00c00484 	movi	r3,18
 8402448:	00800504 	movi	r2,20
 840244c:	10c00035 	stwio	r3,0(r2)
		LCD_WR_DATA(0X0081);
 8402450:	00c02044 	movi	r3,129
 8402454:	00800504 	movi	r2,20
 8402458:	10c00035 	stwio	r3,0(r2)

	LCD_WR_REG(0x00E8);
 840245c:	00c03a04 	movi	r3,232
 8402460:	00800404 	movi	r2,16
 8402464:	10c00035 	stwio	r3,0(r2)
		LCD_WR_DATA(0x0085);
 8402468:	00c02144 	movi	r3,133
 840246c:	00800504 	movi	r2,20
 8402470:	10c00035 	stwio	r3,0(r2)
		LCD_WR_DATA(0x0001);
 8402474:	00c00044 	movi	r3,1
 8402478:	00800504 	movi	r2,20
 840247c:	10c00035 	stwio	r3,0(r2)
		LCD_WR_DATA(0x00798);
 8402480:	00c1e604 	movi	r3,1944
 8402484:	00800504 	movi	r2,20
 8402488:	10c00035 	stwio	r3,0(r2)

	LCD_WR_REG(0x00CB);
 840248c:	00c032c4 	movi	r3,203
 8402490:	00800404 	movi	r2,16
 8402494:	10c00035 	stwio	r3,0(r2)
		LCD_WR_DATA(0x0039);
 8402498:	00c00e44 	movi	r3,57
 840249c:	00800504 	movi	r2,20
 84024a0:	10c00035 	stwio	r3,0(r2)
		LCD_WR_DATA(0x002C);
 84024a4:	00c00b04 	movi	r3,44
 84024a8:	00800504 	movi	r2,20
 84024ac:	10c00035 	stwio	r3,0(r2)
		LCD_WR_DATA(0x0000);
 84024b0:	0007883a 	mov	r3,zero
 84024b4:	00800504 	movi	r2,20
 84024b8:	10c00035 	stwio	r3,0(r2)
		LCD_WR_DATA(0x0034);
 84024bc:	00c00d04 	movi	r3,52
 84024c0:	00800504 	movi	r2,20
 84024c4:	10c00035 	stwio	r3,0(r2)
		LCD_WR_DATA(0x0002);
 84024c8:	00c00084 	movi	r3,2
 84024cc:	00800504 	movi	r2,20
 84024d0:	10c00035 	stwio	r3,0(r2)

	LCD_WR_REG(0x00F7);
 84024d4:	00c03dc4 	movi	r3,247
 84024d8:	00800404 	movi	r2,16
 84024dc:	10c00035 	stwio	r3,0(r2)
		LCD_WR_DATA(0x0020);
 84024e0:	00c00804 	movi	r3,32
 84024e4:	00800504 	movi	r2,20
 84024e8:	10c00035 	stwio	r3,0(r2)

	LCD_WR_REG(0x00EA);
 84024ec:	00c03a84 	movi	r3,234
 84024f0:	00800404 	movi	r2,16
 84024f4:	10c00035 	stwio	r3,0(r2)
		LCD_WR_DATA(0x0000);
 84024f8:	0007883a 	mov	r3,zero
 84024fc:	00800504 	movi	r2,20
 8402500:	10c00035 	stwio	r3,0(r2)
		LCD_WR_DATA(0x0000);
 8402504:	0007883a 	mov	r3,zero
 8402508:	00800504 	movi	r2,20
 840250c:	10c00035 	stwio	r3,0(r2)

	LCD_WR_REG(0x00B1);
 8402510:	00c02c44 	movi	r3,177
 8402514:	00800404 	movi	r2,16
 8402518:	10c00035 	stwio	r3,0(r2)
		LCD_WR_DATA(0x0000);
 840251c:	0007883a 	mov	r3,zero
 8402520:	00800504 	movi	r2,20
 8402524:	10c00035 	stwio	r3,0(r2)
		LCD_WR_DATA(0x001b);
 8402528:	00c006c4 	movi	r3,27
 840252c:	00800504 	movi	r2,20
 8402530:	10c00035 	stwio	r3,0(r2)

	LCD_WR_REG(0x00B6);
 8402534:	00c02d84 	movi	r3,182
 8402538:	00800404 	movi	r2,16
 840253c:	10c00035 	stwio	r3,0(r2)
		LCD_WR_DATA(0x000A);
 8402540:	00c00284 	movi	r3,10
 8402544:	00800504 	movi	r2,20
 8402548:	10c00035 	stwio	r3,0(r2)
		LCD_WR_DATA(0x00A2);
 840254c:	00c02884 	movi	r3,162
 8402550:	00800504 	movi	r2,20
 8402554:	10c00035 	stwio	r3,0(r2)

	LCD_WR_REG(0x00C0);    //Power control
 8402558:	00c03004 	movi	r3,192
 840255c:	00800404 	movi	r2,16
 8402560:	10c00035 	stwio	r3,0(r2)
		LCD_WR_DATA(0x0005);   //VRH[5:0]
 8402564:	00c00144 	movi	r3,5
 8402568:	00800504 	movi	r2,20
 840256c:	10c00035 	stwio	r3,0(r2)

	LCD_WR_REG(0x00C1);    //Power control
 8402570:	00c03044 	movi	r3,193
 8402574:	00800404 	movi	r2,16
 8402578:	10c00035 	stwio	r3,0(r2)
		LCD_WR_DATA(0x0011);   //SAP[2:0];BT[3:0]
 840257c:	00c00444 	movi	r3,17
 8402580:	00800504 	movi	r2,20
 8402584:	10c00035 	stwio	r3,0(r2)

	LCD_WR_REG(0x00C5);    //VCM control
 8402588:	00c03144 	movi	r3,197
 840258c:	00800404 	movi	r2,16
 8402590:	10c00035 	stwio	r3,0(r2)
		LCD_WR_DATA(0x0045);       //3F
 8402594:	00c01144 	movi	r3,69
 8402598:	00800504 	movi	r2,20
 840259c:	10c00035 	stwio	r3,0(r2)
		LCD_WR_DATA(0x0045);       //3C
 84025a0:	00c01144 	movi	r3,69
 84025a4:	00800504 	movi	r2,20
 84025a8:	10c00035 	stwio	r3,0(r2)

	 LCD_WR_REG(0x00C7);    //VCM control2
 84025ac:	00c031c4 	movi	r3,199
 84025b0:	00800404 	movi	r2,16
 84025b4:	10c00035 	stwio	r3,0(r2)
		 LCD_WR_DATA(0X00a2);
 84025b8:	00c02884 	movi	r3,162
 84025bc:	00800504 	movi	r2,20
 84025c0:	10c00035 	stwio	r3,0(r2)

	LCD_WR_REG(0x0036);    // Memory Access Control
 84025c4:	00c00d84 	movi	r3,54
 84025c8:	00800404 	movi	r2,16
 84025cc:	10c00035 	stwio	r3,0(r2)
		LCD_WR_DATA(0x0008);//48
 84025d0:	00c00204 	movi	r3,8
 84025d4:	00800504 	movi	r2,20
 84025d8:	10c00035 	stwio	r3,0(r2)

	LCD_WR_REG(0x00F2);    // 3Gamma Function Disable
 84025dc:	00c03c84 	movi	r3,242
 84025e0:	00800404 	movi	r2,16
 84025e4:	10c00035 	stwio	r3,0(r2)
		LCD_WR_DATA(0x0000);
 84025e8:	0007883a 	mov	r3,zero
 84025ec:	00800504 	movi	r2,20
 84025f0:	10c00035 	stwio	r3,0(r2)

	LCD_WR_REG(0x0026);    //Gamma curve selected
 84025f4:	00c00984 	movi	r3,38
 84025f8:	00800404 	movi	r2,16
 84025fc:	10c00035 	stwio	r3,0(r2)
		LCD_WR_DATA(0x0001);
 8402600:	00c00044 	movi	r3,1
 8402604:	00800504 	movi	r2,20
 8402608:	10c00035 	stwio	r3,0(r2)

	LCD_WR_REG(0x00E0);    //Set Gamma
 840260c:	00c03804 	movi	r3,224
 8402610:	00800404 	movi	r2,16
 8402614:	10c00035 	stwio	r3,0(r2)
		LCD_WR_DATA(0x000F);
 8402618:	00c003c4 	movi	r3,15
 840261c:	00800504 	movi	r2,20
 8402620:	10c00035 	stwio	r3,0(r2)
		LCD_WR_DATA(0x0026);
 8402624:	00c00984 	movi	r3,38
 8402628:	00800504 	movi	r2,20
 840262c:	10c00035 	stwio	r3,0(r2)
		LCD_WR_DATA(0x0024);
 8402630:	00c00904 	movi	r3,36
 8402634:	00800504 	movi	r2,20
 8402638:	10c00035 	stwio	r3,0(r2)
		LCD_WR_DATA(0x000b);
 840263c:	00c002c4 	movi	r3,11
 8402640:	00800504 	movi	r2,20
 8402644:	10c00035 	stwio	r3,0(r2)
		LCD_WR_DATA(0x000E);
 8402648:	00c00384 	movi	r3,14
 840264c:	00800504 	movi	r2,20
 8402650:	10c00035 	stwio	r3,0(r2)
		LCD_WR_DATA(0x0008);
 8402654:	00c00204 	movi	r3,8
 8402658:	00800504 	movi	r2,20
 840265c:	10c00035 	stwio	r3,0(r2)
		LCD_WR_DATA(0x004b);
 8402660:	00c012c4 	movi	r3,75
 8402664:	00800504 	movi	r2,20
 8402668:	10c00035 	stwio	r3,0(r2)
		LCD_WR_DATA(0X00a8);
 840266c:	00c02a04 	movi	r3,168
 8402670:	00800504 	movi	r2,20
 8402674:	10c00035 	stwio	r3,0(r2)
		LCD_WR_DATA(0x003b);
 8402678:	00c00ec4 	movi	r3,59
 840267c:	00800504 	movi	r2,20
 8402680:	10c00035 	stwio	r3,0(r2)
		LCD_WR_DATA(0x000a);
 8402684:	00c00284 	movi	r3,10
 8402688:	00800504 	movi	r2,20
 840268c:	10c00035 	stwio	r3,0(r2)
		LCD_WR_DATA(0x0014);
 8402690:	00c00504 	movi	r3,20
 8402694:	00800504 	movi	r2,20
 8402698:	10c00035 	stwio	r3,0(r2)
		LCD_WR_DATA(0x0006);
 840269c:	00c00184 	movi	r3,6
 84026a0:	00800504 	movi	r2,20
 84026a4:	10c00035 	stwio	r3,0(r2)
		LCD_WR_DATA(0x0010);
 84026a8:	00c00404 	movi	r3,16
 84026ac:	00800504 	movi	r2,20
 84026b0:	10c00035 	stwio	r3,0(r2)
		LCD_WR_DATA(0x0009);
 84026b4:	00c00244 	movi	r3,9
 84026b8:	00800504 	movi	r2,20
 84026bc:	10c00035 	stwio	r3,0(r2)
		LCD_WR_DATA(0x0000);
 84026c0:	0007883a 	mov	r3,zero
 84026c4:	00800504 	movi	r2,20
 84026c8:	10c00035 	stwio	r3,0(r2)

	LCD_WR_REG(0X00E1);    //Set Gamma
 84026cc:	00c03844 	movi	r3,225
 84026d0:	00800404 	movi	r2,16
 84026d4:	10c00035 	stwio	r3,0(r2)
		LCD_WR_DATA(0x0000);
 84026d8:	0007883a 	mov	r3,zero
 84026dc:	00800504 	movi	r2,20
 84026e0:	10c00035 	stwio	r3,0(r2)
		LCD_WR_DATA(0x001c);
 84026e4:	00c00704 	movi	r3,28
 84026e8:	00800504 	movi	r2,20
 84026ec:	10c00035 	stwio	r3,0(r2)
		LCD_WR_DATA(0x0020);
 84026f0:	00c00804 	movi	r3,32
 84026f4:	00800504 	movi	r2,20
 84026f8:	10c00035 	stwio	r3,0(r2)
		LCD_WR_DATA(0x0004);
 84026fc:	00c00104 	movi	r3,4
 8402700:	00800504 	movi	r2,20
 8402704:	10c00035 	stwio	r3,0(r2)
		LCD_WR_DATA(0x0010);
 8402708:	00c00404 	movi	r3,16
 840270c:	00800504 	movi	r2,20
 8402710:	10c00035 	stwio	r3,0(r2)
		LCD_WR_DATA(0x0008);
 8402714:	00c00204 	movi	r3,8
 8402718:	00800504 	movi	r2,20
 840271c:	10c00035 	stwio	r3,0(r2)
		LCD_WR_DATA(0x0034);
 8402720:	00c00d04 	movi	r3,52
 8402724:	00800504 	movi	r2,20
 8402728:	10c00035 	stwio	r3,0(r2)
		LCD_WR_DATA(0x0047);
 840272c:	00c011c4 	movi	r3,71
 8402730:	00800504 	movi	r2,20
 8402734:	10c00035 	stwio	r3,0(r2)
		LCD_WR_DATA(0x0044);
 8402738:	00c01104 	movi	r3,68
 840273c:	00800504 	movi	r2,20
 8402740:	10c00035 	stwio	r3,0(r2)
		LCD_WR_DATA(0x0005);
 8402744:	00c00144 	movi	r3,5
 8402748:	00800504 	movi	r2,20
 840274c:	10c00035 	stwio	r3,0(r2)
		LCD_WR_DATA(0x000b);
 8402750:	00c002c4 	movi	r3,11
 8402754:	00800504 	movi	r2,20
 8402758:	10c00035 	stwio	r3,0(r2)
		LCD_WR_DATA(0x0009);
 840275c:	00c00244 	movi	r3,9
 8402760:	00800504 	movi	r2,20
 8402764:	10c00035 	stwio	r3,0(r2)
		LCD_WR_DATA(0x002f);
 8402768:	00c00bc4 	movi	r3,47
 840276c:	00800504 	movi	r2,20
 8402770:	10c00035 	stwio	r3,0(r2)
		LCD_WR_DATA(0x0036);
 8402774:	00c00d84 	movi	r3,54
 8402778:	00800504 	movi	r2,20
 840277c:	10c00035 	stwio	r3,0(r2)
		LCD_WR_DATA(0x000f);
 8402780:	00c003c4 	movi	r3,15
 8402784:	00800504 	movi	r2,20
 8402788:	10c00035 	stwio	r3,0(r2)

	LCD_WR_REG(0x002A);
 840278c:	00c00a84 	movi	r3,42
 8402790:	00800404 	movi	r2,16
 8402794:	10c00035 	stwio	r3,0(r2)
		LCD_WR_DATA(0x0000);
 8402798:	0007883a 	mov	r3,zero
 840279c:	00800504 	movi	r2,20
 84027a0:	10c00035 	stwio	r3,0(r2)
		LCD_WR_DATA(0x0000);
 84027a4:	0007883a 	mov	r3,zero
 84027a8:	00800504 	movi	r2,20
 84027ac:	10c00035 	stwio	r3,0(r2)
		LCD_WR_DATA(0x0000);
 84027b0:	0007883a 	mov	r3,zero
 84027b4:	00800504 	movi	r2,20
 84027b8:	10c00035 	stwio	r3,0(r2)
		LCD_WR_DATA(0x00ef);
 84027bc:	00c03bc4 	movi	r3,239
 84027c0:	00800504 	movi	r2,20
 84027c4:	10c00035 	stwio	r3,0(r2)

	 LCD_WR_REG(0x002B);
 84027c8:	00c00ac4 	movi	r3,43
 84027cc:	00800404 	movi	r2,16
 84027d0:	10c00035 	stwio	r3,0(r2)
		LCD_WR_DATA(0x0000);
 84027d4:	0007883a 	mov	r3,zero
 84027d8:	00800504 	movi	r2,20
 84027dc:	10c00035 	stwio	r3,0(r2)
		LCD_WR_DATA(0x0000);
 84027e0:	0007883a 	mov	r3,zero
 84027e4:	00800504 	movi	r2,20
 84027e8:	10c00035 	stwio	r3,0(r2)
		LCD_WR_DATA(0x0001);
 84027ec:	00c00044 	movi	r3,1
 84027f0:	00800504 	movi	r2,20
 84027f4:	10c00035 	stwio	r3,0(r2)
		LCD_WR_DATA(0x003f);
 84027f8:	00c00fc4 	movi	r3,63
 84027fc:	00800504 	movi	r2,20
 8402800:	10c00035 	stwio	r3,0(r2)

	LCD_WR_REG(0x003A);
 8402804:	00c00e84 	movi	r3,58
 8402808:	00800404 	movi	r2,16
 840280c:	10c00035 	stwio	r3,0(r2)
		LCD_WR_DATA(0x0055);
 8402810:	00c01544 	movi	r3,85
 8402814:	00800504 	movi	r2,20
 8402818:	10c00035 	stwio	r3,0(r2)

	LCD_WR_REG(0x00f6);
 840281c:	00c03d84 	movi	r3,246
 8402820:	00800404 	movi	r2,16
 8402824:	10c00035 	stwio	r3,0(r2)
		LCD_WR_DATA(0x0001);
 8402828:	00c00044 	movi	r3,1
 840282c:	00800504 	movi	r2,20
 8402830:	10c00035 	stwio	r3,0(r2)
		LCD_WR_DATA(0x0030);
 8402834:	00c00c04 	movi	r3,48
 8402838:	00800504 	movi	r2,20
 840283c:	10c00035 	stwio	r3,0(r2)
		LCD_WR_DATA(0x0000);
 8402840:	0007883a 	mov	r3,zero
 8402844:	00800504 	movi	r2,20
 8402848:	10c00035 	stwio	r3,0(r2)

	LCD_WR_REG(0x0029); //display on
 840284c:	00c00a44 	movi	r3,41
 8402850:	00800404 	movi	r2,16
 8402854:	10c00035 	stwio	r3,0(r2)

	LCD_WR_REG(0x002c);    // 0x2C
 8402858:	00c00b04 	movi	r3,44
 840285c:	00800404 	movi	r2,16
 8402860:	10c00035 	stwio	r3,0(r2)

}
 8402864:	0001883a 	nop
 8402868:	e037883a 	mov	sp,fp
 840286c:	dfc00117 	ldw	ra,4(sp)
 8402870:	df000017 	ldw	fp,0(sp)
 8402874:	dec00204 	addi	sp,sp,8
 8402878:	f800283a 	ret

0840287c <LCD_Pattern_Horizon>:


void LCD_Pattern_Horizon(void)
{
 840287c:	defffc04 	addi	sp,sp,-16
 8402880:	dfc00315 	stw	ra,12(sp)
 8402884:	df000215 	stw	fp,8(sp)
 8402888:	df000204 	addi	fp,sp,8
        alt_u32 index=0;
 840288c:	e03ffe15 	stw	zero,-8(fp)
        alt_u16  data=0;
 8402890:	e03fff0d 	sth	zero,-4(fp)
        LCD_SetCursor(0x00,0x0000);
 8402894:	000b883a 	mov	r5,zero
 8402898:	0009883a 	mov	r4,zero
 840289c:	840220c0 	call	840220c <LCD_SetCursor>
        data=0x0000;
 84028a0:	e03fff0d 	sth	zero,-4(fp)
        for(index=0;index<240*80;index++)
 84028a4:	e03ffe15 	stw	zero,-8(fp)
 84028a8:	00000606 	br	84028c4 <LCD_Pattern_Horizon+0x48>
        {
        	LCD_WR_DATA(data);
 84028ac:	e0ffff0b 	ldhu	r3,-4(fp)
 84028b0:	00800504 	movi	r2,20
 84028b4:	10c00035 	stwio	r3,0(r2)
{
        alt_u32 index=0;
        alt_u16  data=0;
        LCD_SetCursor(0x00,0x0000);
        data=0x0000;
        for(index=0;index<240*80;index++)
 84028b8:	e0bffe17 	ldw	r2,-8(fp)
 84028bc:	10800044 	addi	r2,r2,1
 84028c0:	e0bffe15 	stw	r2,-8(fp)
 84028c4:	e0bffe17 	ldw	r2,-8(fp)
 84028c8:	1092c030 	cmpltui	r2,r2,19200
 84028cc:	103ff71e 	bne	r2,zero,84028ac <__alt_data_end+0xfc4028ac>
        {
        	LCD_WR_DATA(data);
        }
        LCD_SetCursor(0x00,80);
 84028d0:	01401404 	movi	r5,80
 84028d4:	0009883a 	mov	r4,zero
 84028d8:	840220c0 	call	840220c <LCD_SetCursor>
        data=RED;
 84028dc:	00be0004 	movi	r2,-2048
 84028e0:	e0bfff0d 	sth	r2,-4(fp)
		for(index=0;index<240*80;index++)
 84028e4:	e03ffe15 	stw	zero,-8(fp)
 84028e8:	00000606 	br	8402904 <LCD_Pattern_Horizon+0x88>
		{
			LCD_WR_DATA(data);
 84028ec:	e0ffff0b 	ldhu	r3,-4(fp)
 84028f0:	00800504 	movi	r2,20
 84028f4:	10c00035 	stwio	r3,0(r2)
        {
        	LCD_WR_DATA(data);
        }
        LCD_SetCursor(0x00,80);
        data=RED;
		for(index=0;index<240*80;index++)
 84028f8:	e0bffe17 	ldw	r2,-8(fp)
 84028fc:	10800044 	addi	r2,r2,1
 8402900:	e0bffe15 	stw	r2,-8(fp)
 8402904:	e0bffe17 	ldw	r2,-8(fp)
 8402908:	1092c030 	cmpltui	r2,r2,19200
 840290c:	103ff71e 	bne	r2,zero,84028ec <__alt_data_end+0xfc4028ec>
		{
			LCD_WR_DATA(data);
		}
	    LCD_SetCursor(0x00,160);
 8402910:	01402804 	movi	r5,160
 8402914:	0009883a 	mov	r4,zero
 8402918:	840220c0 	call	840220c <LCD_SetCursor>
		data=GREEN;
 840291c:	0081f804 	movi	r2,2016
 8402920:	e0bfff0d 	sth	r2,-4(fp)
		for(index=0;index<240*80;index++)
 8402924:	e03ffe15 	stw	zero,-8(fp)
 8402928:	00000606 	br	8402944 <LCD_Pattern_Horizon+0xc8>
		{
			LCD_WR_DATA(data);
 840292c:	e0ffff0b 	ldhu	r3,-4(fp)
 8402930:	00800504 	movi	r2,20
 8402934:	10c00035 	stwio	r3,0(r2)
		{
			LCD_WR_DATA(data);
		}
	    LCD_SetCursor(0x00,160);
		data=GREEN;
		for(index=0;index<240*80;index++)
 8402938:	e0bffe17 	ldw	r2,-8(fp)
 840293c:	10800044 	addi	r2,r2,1
 8402940:	e0bffe15 	stw	r2,-8(fp)
 8402944:	e0bffe17 	ldw	r2,-8(fp)
 8402948:	1092c030 	cmpltui	r2,r2,19200
 840294c:	103ff71e 	bne	r2,zero,840292c <__alt_data_end+0xfc40292c>
		{
			LCD_WR_DATA(data);
		}
		LCD_SetCursor(0x00,240);
 8402950:	01403c04 	movi	r5,240
 8402954:	0009883a 	mov	r4,zero
 8402958:	840220c0 	call	840220c <LCD_SetCursor>
		data=BLUE;
 840295c:	008007c4 	movi	r2,31
 8402960:	e0bfff0d 	sth	r2,-4(fp)
		for(index=0;index<240*80;index++)
 8402964:	e03ffe15 	stw	zero,-8(fp)
 8402968:	00000606 	br	8402984 <LCD_Pattern_Horizon+0x108>
		{
			LCD_WR_DATA(data);
 840296c:	e0ffff0b 	ldhu	r3,-4(fp)
 8402970:	00800504 	movi	r2,20
 8402974:	10c00035 	stwio	r3,0(r2)
		{
			LCD_WR_DATA(data);
		}
		LCD_SetCursor(0x00,240);
		data=BLUE;
		for(index=0;index<240*80;index++)
 8402978:	e0bffe17 	ldw	r2,-8(fp)
 840297c:	10800044 	addi	r2,r2,1
 8402980:	e0bffe15 	stw	r2,-8(fp)
 8402984:	e0bffe17 	ldw	r2,-8(fp)
 8402988:	1092c030 	cmpltui	r2,r2,19200
 840298c:	103ff71e 	bne	r2,zero,840296c <__alt_data_end+0xfc40296c>
		{
			LCD_WR_DATA(data);
		}
}
 8402990:	0001883a 	nop
 8402994:	e037883a 	mov	sp,fp
 8402998:	dfc00117 	ldw	ra,4(sp)
 840299c:	df000017 	ldw	fp,0(sp)
 84029a0:	dec00204 	addi	sp,sp,8
 84029a4:	f800283a 	ret

084029a8 <LCD_Pattern_Vertical>:

void LCD_Pattern_Vertical(void)
{
 84029a8:	defff804 	addi	sp,sp,-32
 84029ac:	dfc00715 	stw	ra,28(sp)
 84029b0:	df000615 	stw	fp,24(sp)
 84029b4:	df000604 	addi	fp,sp,24
        int i,j,m;
        alt_u16  data=0;
 84029b8:	e03ffd0d 	sth	zero,-12(fp)
        alt_u16  color[4]={WHITE,BLUE,GREEN,RED};
 84029bc:	00bfffc4 	movi	r2,-1
 84029c0:	e0bffd8d 	sth	r2,-10(fp)
 84029c4:	008007c4 	movi	r2,31
 84029c8:	e0bffe0d 	sth	r2,-8(fp)
 84029cc:	0081f804 	movi	r2,2016
 84029d0:	e0bffe8d 	sth	r2,-6(fp)
 84029d4:	00be0004 	movi	r2,-2048
 84029d8:	e0bfff0d 	sth	r2,-4(fp)
        LCD_SetCursor(0x00,0x0000);
 84029dc:	000b883a 	mov	r5,zero
 84029e0:	0009883a 	mov	r4,zero
 84029e4:	840220c0 	call	840220c <LCD_SetCursor>
        for(m=0;m<320;m++)
 84029e8:	e03ffc15 	stw	zero,-16(fp)
 84029ec:	00001d06 	br	8402a64 <LCD_Pattern_Vertical+0xbc>
        {
			for(i=0;i<4;i++)
 84029f0:	e03ffa15 	stw	zero,-24(fp)
 84029f4:	00001506 	br	8402a4c <LCD_Pattern_Vertical+0xa4>
			{
				data=color[i];
 84029f8:	e0bffa17 	ldw	r2,-24(fp)
 84029fc:	1085883a 	add	r2,r2,r2
 8402a00:	e0fffa04 	addi	r3,fp,-24
 8402a04:	1885883a 	add	r2,r3,r2
 8402a08:	10800384 	addi	r2,r2,14
 8402a0c:	1080000b 	ldhu	r2,0(r2)
 8402a10:	e0bffd0d 	sth	r2,-12(fp)
				for(j=0;j<60;j++)
 8402a14:	e03ffb15 	stw	zero,-20(fp)
 8402a18:	00000606 	br	8402a34 <LCD_Pattern_Vertical+0x8c>
				{
					LCD_WR_DATA(data);
 8402a1c:	e0fffd0b 	ldhu	r3,-12(fp)
 8402a20:	00800504 	movi	r2,20
 8402a24:	10c00035 	stwio	r3,0(r2)
        for(m=0;m<320;m++)
        {
			for(i=0;i<4;i++)
			{
				data=color[i];
				for(j=0;j<60;j++)
 8402a28:	e0bffb17 	ldw	r2,-20(fp)
 8402a2c:	10800044 	addi	r2,r2,1
 8402a30:	e0bffb15 	stw	r2,-20(fp)
 8402a34:	e0bffb17 	ldw	r2,-20(fp)
 8402a38:	10800f10 	cmplti	r2,r2,60
 8402a3c:	103ff71e 	bne	r2,zero,8402a1c <__alt_data_end+0xfc402a1c>
        alt_u16  data=0;
        alt_u16  color[4]={WHITE,BLUE,GREEN,RED};
        LCD_SetCursor(0x00,0x0000);
        for(m=0;m<320;m++)
        {
			for(i=0;i<4;i++)
 8402a40:	e0bffa17 	ldw	r2,-24(fp)
 8402a44:	10800044 	addi	r2,r2,1
 8402a48:	e0bffa15 	stw	r2,-24(fp)
 8402a4c:	e0bffa17 	ldw	r2,-24(fp)
 8402a50:	10800110 	cmplti	r2,r2,4
 8402a54:	103fe81e 	bne	r2,zero,84029f8 <__alt_data_end+0xfc4029f8>
{
        int i,j,m;
        alt_u16  data=0;
        alt_u16  color[4]={WHITE,BLUE,GREEN,RED};
        LCD_SetCursor(0x00,0x0000);
        for(m=0;m<320;m++)
 8402a58:	e0bffc17 	ldw	r2,-16(fp)
 8402a5c:	10800044 	addi	r2,r2,1
 8402a60:	e0bffc15 	stw	r2,-16(fp)
 8402a64:	e0bffc17 	ldw	r2,-16(fp)
 8402a68:	10805010 	cmplti	r2,r2,320
 8402a6c:	103fe01e 	bne	r2,zero,84029f0 <__alt_data_end+0xfc4029f0>
				{
					LCD_WR_DATA(data);
				}
			}
        }
}
 8402a70:	0001883a 	nop
 8402a74:	e037883a 	mov	sp,fp
 8402a78:	dfc00117 	ldw	ra,4(sp)
 8402a7c:	df000017 	ldw	fp,0(sp)
 8402a80:	dec00204 	addi	sp,sp,8
 8402a84:	f800283a 	ret

08402a88 <debug_output>:
    UART_WriteString(pMessage);  // UART debug
}

#else

void debug_output(char *pMessage){
 8402a88:	defffd04 	addi	sp,sp,-12
 8402a8c:	dfc00215 	stw	ra,8(sp)
 8402a90:	df000115 	stw	fp,4(sp)
 8402a94:	df000104 	addi	fp,sp,4
 8402a98:	e13fff15 	stw	r4,-4(fp)
    
    printf(pMessage);
 8402a9c:	e13fff17 	ldw	r4,-4(fp)
 8402aa0:	840c4d00 	call	840c4d0 <printf>
}
 8402aa4:	0001883a 	nop
 8402aa8:	e037883a 	mov	sp,fp
 8402aac:	dfc00117 	ldw	ra,4(sp)
 8402ab0:	df000017 	ldw	fp,0(sp)
 8402ab4:	dec00204 	addi	sp,sp,8
 8402ab8:	f800283a 	ret

08402abc <myprintf>:





int myprintf(char *format, ...){
 8402abc:	deff7804 	addi	sp,sp,-544
 8402ac0:	dfc08415 	stw	ra,528(sp)
 8402ac4:	df008315 	stw	fp,524(sp)
 8402ac8:	df008304 	addi	fp,sp,524
 8402acc:	e13fff15 	stw	r4,-4(fp)
 8402ad0:	e1400215 	stw	r5,8(fp)
 8402ad4:	e1800315 	stw	r6,12(fp)
 8402ad8:	e1c00415 	stw	r7,16(fp)
    int rc;
    char szText[512];
    
    va_list paramList;
    va_start(paramList, format);
 8402adc:	e0800204 	addi	r2,fp,8
 8402ae0:	e0bffe15 	stw	r2,-8(fp)
    rc = vsnprintf(szText, 512, format, paramList);
 8402ae4:	e0fffe17 	ldw	r3,-8(fp)
 8402ae8:	e0bf7e04 	addi	r2,fp,-520
 8402aec:	180f883a 	mov	r7,r3
 8402af0:	e1bfff17 	ldw	r6,-4(fp)
 8402af4:	01408004 	movi	r5,512
 8402af8:	1009883a 	mov	r4,r2
 8402afc:	84110e40 	call	84110e4 <vsnprintf>
 8402b00:	e0bf7d15 	stw	r2,-524(fp)
    va_end(paramList);
    
    debug_output(szText);
 8402b04:	e0bf7e04 	addi	r2,fp,-520
 8402b08:	1009883a 	mov	r4,r2
 8402b0c:	8402a880 	call	8402a88 <debug_output>

    return rc;    
 8402b10:	e0bf7d17 	ldw	r2,-524(fp)
}
 8402b14:	e037883a 	mov	sp,fp
 8402b18:	dfc00117 	ldw	ra,4(sp)
 8402b1c:	df000017 	ldw	fp,0(sp)
 8402b20:	dec00504 	addi	sp,sp,20
 8402b24:	f800283a 	ret

08402b28 <myprintf_hexarray>:


int myprintf_hexarray(unsigned char *pHex, int len){
 8402b28:	defff704 	addi	sp,sp,-36
 8402b2c:	dfc00815 	stw	ra,32(sp)
 8402b30:	df000715 	stw	fp,28(sp)
 8402b34:	df000704 	addi	fp,sp,28
 8402b38:	e13ffe15 	stw	r4,-8(fp)
 8402b3c:	e17fff15 	stw	r5,-4(fp)
    int i;
    unsigned char szText[16];
    for(i=0;i<len;i++){
 8402b40:	e03ff915 	stw	zero,-28(fp)
 8402b44:	00001106 	br	8402b8c <myprintf_hexarray+0x64>
        sprintf(szText, "[%02X]", *(pHex+i));
 8402b48:	e0bff917 	ldw	r2,-28(fp)
 8402b4c:	e0fffe17 	ldw	r3,-8(fp)
 8402b50:	1885883a 	add	r2,r3,r2
 8402b54:	10800003 	ldbu	r2,0(r2)
 8402b58:	10c03fcc 	andi	r3,r2,255
 8402b5c:	e0bffa04 	addi	r2,fp,-24
 8402b60:	180d883a 	mov	r6,r3
 8402b64:	01421134 	movhi	r5,2116
 8402b68:	29541e04 	addi	r5,r5,20600
 8402b6c:	1009883a 	mov	r4,r2
 8402b70:	840c87c0 	call	840c87c <sprintf>
        DEBUG((szText));
 8402b74:	e0bffa04 	addi	r2,fp,-24
 8402b78:	1009883a 	mov	r4,r2
 8402b7c:	8402abc0 	call	8402abc <myprintf>


int myprintf_hexarray(unsigned char *pHex, int len){
    int i;
    unsigned char szText[16];
    for(i=0;i<len;i++){
 8402b80:	e0bff917 	ldw	r2,-28(fp)
 8402b84:	10800044 	addi	r2,r2,1
 8402b88:	e0bff915 	stw	r2,-28(fp)
 8402b8c:	e0fff917 	ldw	r3,-28(fp)
 8402b90:	e0bfff17 	ldw	r2,-4(fp)
 8402b94:	18bfec16 	blt	r3,r2,8402b48 <__alt_data_end+0xfc402b48>
        sprintf(szText, "[%02X]", *(pHex+i));
        DEBUG((szText));
    }
    return len;
 8402b98:	e0bfff17 	ldw	r2,-4(fp)
}
 8402b9c:	e037883a 	mov	sp,fp
 8402ba0:	dfc00117 	ldw	ra,4(sp)
 8402ba4:	df000017 	ldw	fp,0(sp)
 8402ba8:	dec00204 	addi	sp,sp,8
 8402bac:	f800283a 	ret

08402bb0 <myprintf_dwordarray>:

int  myprintf_dwordarray(unsigned int *pArray, int nElementCount){
 8402bb0:	defff704 	addi	sp,sp,-36
 8402bb4:	dfc00815 	stw	ra,32(sp)
 8402bb8:	df000715 	stw	fp,28(sp)
 8402bbc:	df000704 	addi	fp,sp,28
 8402bc0:	e13ffe15 	stw	r4,-8(fp)
 8402bc4:	e17fff15 	stw	r5,-4(fp)
    int i;
    char szText[16];
    for(i=0;i<nElementCount;i++){
 8402bc8:	e03ff915 	stw	zero,-28(fp)
 8402bcc:	00001306 	br	8402c1c <myprintf_dwordarray+0x6c>
        sprintf(szText, "[%08X]", *(pArray+i));
 8402bd0:	e0bff917 	ldw	r2,-28(fp)
 8402bd4:	1085883a 	add	r2,r2,r2
 8402bd8:	1085883a 	add	r2,r2,r2
 8402bdc:	1007883a 	mov	r3,r2
 8402be0:	e0bffe17 	ldw	r2,-8(fp)
 8402be4:	10c5883a 	add	r2,r2,r3
 8402be8:	10c00017 	ldw	r3,0(r2)
 8402bec:	e0bffa04 	addi	r2,fp,-24
 8402bf0:	180d883a 	mov	r6,r3
 8402bf4:	01421134 	movhi	r5,2116
 8402bf8:	29542004 	addi	r5,r5,20608
 8402bfc:	1009883a 	mov	r4,r2
 8402c00:	840c87c0 	call	840c87c <sprintf>
        DEBUG((szText));
 8402c04:	e0bffa04 	addi	r2,fp,-24
 8402c08:	1009883a 	mov	r4,r2
 8402c0c:	8402abc0 	call	8402abc <myprintf>
}

int  myprintf_dwordarray(unsigned int *pArray, int nElementCount){
    int i;
    char szText[16];
    for(i=0;i<nElementCount;i++){
 8402c10:	e0bff917 	ldw	r2,-28(fp)
 8402c14:	10800044 	addi	r2,r2,1
 8402c18:	e0bff915 	stw	r2,-28(fp)
 8402c1c:	e0fff917 	ldw	r3,-28(fp)
 8402c20:	e0bfff17 	ldw	r2,-4(fp)
 8402c24:	18bfea16 	blt	r3,r2,8402bd0 <__alt_data_end+0xfc402bd0>
        sprintf(szText, "[%08X]", *(pArray+i));
        DEBUG((szText));
    }
    return nElementCount;
 8402c28:	e0bfff17 	ldw	r2,-4(fp)
}
 8402c2c:	e037883a 	mov	sp,fp
 8402c30:	dfc00117 	ldw	ra,4(sp)
 8402c34:	df000017 	ldw	fp,0(sp)
 8402c38:	dec00204 	addi	sp,sp,8
 8402c3c:	f800283a 	ret

08402c40 <IsPtInRect>:

//#define BOUND(x, mini, maxi) ((x<(mini)?(mini):( (x>(maxi))?(maxi):(x) )))

//#define COPY_POINT(pt_des, pt_src)  memcpy(&pt_des, &pt_src,sizeof(POINT))

bool IsPtInRect(POINT *pt, RECT *rc){
 8402c40:	defffc04 	addi	sp,sp,-16
 8402c44:	df000315 	stw	fp,12(sp)
 8402c48:	df000304 	addi	fp,sp,12
 8402c4c:	e13ffe15 	stw	r4,-8(fp)
 8402c50:	e17fff15 	stw	r5,-4(fp)
    bool bYes = FALSE;
 8402c54:	e03ffd15 	stw	zero,-12(fp)
    
    if (pt->x >= rc->left && pt->x <= rc->right && pt->y >= rc->top && pt->y <= rc->bottom)
 8402c58:	e0bffe17 	ldw	r2,-8(fp)
 8402c5c:	10c00017 	ldw	r3,0(r2)
 8402c60:	e0bfff17 	ldw	r2,-4(fp)
 8402c64:	10800017 	ldw	r2,0(r2)
 8402c68:	18801116 	blt	r3,r2,8402cb0 <IsPtInRect+0x70>
 8402c6c:	e0bffe17 	ldw	r2,-8(fp)
 8402c70:	10800017 	ldw	r2,0(r2)
 8402c74:	e0ffff17 	ldw	r3,-4(fp)
 8402c78:	18c00117 	ldw	r3,4(r3)
 8402c7c:	18800c16 	blt	r3,r2,8402cb0 <IsPtInRect+0x70>
 8402c80:	e0bffe17 	ldw	r2,-8(fp)
 8402c84:	10c00117 	ldw	r3,4(r2)
 8402c88:	e0bfff17 	ldw	r2,-4(fp)
 8402c8c:	10800217 	ldw	r2,8(r2)
 8402c90:	18800716 	blt	r3,r2,8402cb0 <IsPtInRect+0x70>
 8402c94:	e0bffe17 	ldw	r2,-8(fp)
 8402c98:	10800117 	ldw	r2,4(r2)
 8402c9c:	e0ffff17 	ldw	r3,-4(fp)
 8402ca0:	18c00317 	ldw	r3,12(r3)
 8402ca4:	18800216 	blt	r3,r2,8402cb0 <IsPtInRect+0x70>
        bYes = TRUE;
 8402ca8:	00800044 	movi	r2,1
 8402cac:	e0bffd15 	stw	r2,-12(fp)
    
    return bYes;
 8402cb0:	e0bffd17 	ldw	r2,-12(fp)
}
 8402cb4:	e037883a 	mov	sp,fp
 8402cb8:	df000017 	ldw	fp,0(sp)
 8402cbc:	dec00104 	addi	sp,sp,4
 8402cc0:	f800283a 	ret

08402cc4 <PtSet>:

void PtSet(POINT *pt, int x, int y){
 8402cc4:	defffc04 	addi	sp,sp,-16
 8402cc8:	df000315 	stw	fp,12(sp)
 8402ccc:	df000304 	addi	fp,sp,12
 8402cd0:	e13ffd15 	stw	r4,-12(fp)
 8402cd4:	e17ffe15 	stw	r5,-8(fp)
 8402cd8:	e1bfff15 	stw	r6,-4(fp)
    pt->x = x;
 8402cdc:	e0bffd17 	ldw	r2,-12(fp)
 8402ce0:	e0fffe17 	ldw	r3,-8(fp)
 8402ce4:	10c00015 	stw	r3,0(r2)
    pt->y = y;
 8402ce8:	e0bffd17 	ldw	r2,-12(fp)
 8402cec:	e0ffff17 	ldw	r3,-4(fp)
 8402cf0:	10c00115 	stw	r3,4(r2)
}
 8402cf4:	0001883a 	nop
 8402cf8:	e037883a 	mov	sp,fp
 8402cfc:	df000017 	ldw	fp,0(sp)
 8402d00:	dec00104 	addi	sp,sp,4
 8402d04:	f800283a 	ret

08402d08 <RectSet>:

void RectSet(RECT *rc, int left, int right, int top, int bottom){
 8402d08:	defffb04 	addi	sp,sp,-20
 8402d0c:	df000415 	stw	fp,16(sp)
 8402d10:	df000404 	addi	fp,sp,16
 8402d14:	e13ffc15 	stw	r4,-16(fp)
 8402d18:	e17ffd15 	stw	r5,-12(fp)
 8402d1c:	e1bffe15 	stw	r6,-8(fp)
 8402d20:	e1ffff15 	stw	r7,-4(fp)
    rc->left = left;
 8402d24:	e0bffc17 	ldw	r2,-16(fp)
 8402d28:	e0fffd17 	ldw	r3,-12(fp)
 8402d2c:	10c00015 	stw	r3,0(r2)
    rc->right = right;
 8402d30:	e0bffc17 	ldw	r2,-16(fp)
 8402d34:	e0fffe17 	ldw	r3,-8(fp)
 8402d38:	10c00115 	stw	r3,4(r2)
    rc->top = top;
 8402d3c:	e0bffc17 	ldw	r2,-16(fp)
 8402d40:	e0ffff17 	ldw	r3,-4(fp)
 8402d44:	10c00215 	stw	r3,8(r2)
    rc->bottom = bottom;
 8402d48:	e0bffc17 	ldw	r2,-16(fp)
 8402d4c:	e0c00117 	ldw	r3,4(fp)
 8402d50:	10c00315 	stw	r3,12(r2)
}
 8402d54:	0001883a 	nop
 8402d58:	e037883a 	mov	sp,fp
 8402d5c:	df000017 	ldw	fp,0(sp)
 8402d60:	dec00104 	addi	sp,sp,4
 8402d64:	f800283a 	ret

08402d68 <RectInflate>:

void RectInflate(RECT *rc, int x, int y){
 8402d68:	defffc04 	addi	sp,sp,-16
 8402d6c:	df000315 	stw	fp,12(sp)
 8402d70:	df000304 	addi	fp,sp,12
 8402d74:	e13ffd15 	stw	r4,-12(fp)
 8402d78:	e17ffe15 	stw	r5,-8(fp)
 8402d7c:	e1bfff15 	stw	r6,-4(fp)
    rc->left -= x;
 8402d80:	e0bffd17 	ldw	r2,-12(fp)
 8402d84:	10c00017 	ldw	r3,0(r2)
 8402d88:	e0bffe17 	ldw	r2,-8(fp)
 8402d8c:	1887c83a 	sub	r3,r3,r2
 8402d90:	e0bffd17 	ldw	r2,-12(fp)
 8402d94:	10c00015 	stw	r3,0(r2)
    rc->right += x;
 8402d98:	e0bffd17 	ldw	r2,-12(fp)
 8402d9c:	10c00117 	ldw	r3,4(r2)
 8402da0:	e0bffe17 	ldw	r2,-8(fp)
 8402da4:	1887883a 	add	r3,r3,r2
 8402da8:	e0bffd17 	ldw	r2,-12(fp)
 8402dac:	10c00115 	stw	r3,4(r2)
    rc->top -= y;
 8402db0:	e0bffd17 	ldw	r2,-12(fp)
 8402db4:	10c00217 	ldw	r3,8(r2)
 8402db8:	e0bfff17 	ldw	r2,-4(fp)
 8402dbc:	1887c83a 	sub	r3,r3,r2
 8402dc0:	e0bffd17 	ldw	r2,-12(fp)
 8402dc4:	10c00215 	stw	r3,8(r2)
    rc->bottom += y;
 8402dc8:	e0bffd17 	ldw	r2,-12(fp)
 8402dcc:	10c00317 	ldw	r3,12(r2)
 8402dd0:	e0bfff17 	ldw	r2,-4(fp)
 8402dd4:	1887883a 	add	r3,r3,r2
 8402dd8:	e0bffd17 	ldw	r2,-12(fp)
 8402ddc:	10c00315 	stw	r3,12(r2)
}
 8402de0:	0001883a 	nop
 8402de4:	e037883a 	mov	sp,fp
 8402de8:	df000017 	ldw	fp,0(sp)
 8402dec:	dec00104 	addi	sp,sp,4
 8402df0:	f800283a 	ret

08402df4 <RectOffset>:

void RectOffset(RECT *rc, int x, int y){
 8402df4:	defffc04 	addi	sp,sp,-16
 8402df8:	df000315 	stw	fp,12(sp)
 8402dfc:	df000304 	addi	fp,sp,12
 8402e00:	e13ffd15 	stw	r4,-12(fp)
 8402e04:	e17ffe15 	stw	r5,-8(fp)
 8402e08:	e1bfff15 	stw	r6,-4(fp)
    rc->left += x;
 8402e0c:	e0bffd17 	ldw	r2,-12(fp)
 8402e10:	10c00017 	ldw	r3,0(r2)
 8402e14:	e0bffe17 	ldw	r2,-8(fp)
 8402e18:	1887883a 	add	r3,r3,r2
 8402e1c:	e0bffd17 	ldw	r2,-12(fp)
 8402e20:	10c00015 	stw	r3,0(r2)
    rc->right += x;
 8402e24:	e0bffd17 	ldw	r2,-12(fp)
 8402e28:	10c00117 	ldw	r3,4(r2)
 8402e2c:	e0bffe17 	ldw	r2,-8(fp)
 8402e30:	1887883a 	add	r3,r3,r2
 8402e34:	e0bffd17 	ldw	r2,-12(fp)
 8402e38:	10c00115 	stw	r3,4(r2)
    rc->top += y;
 8402e3c:	e0bffd17 	ldw	r2,-12(fp)
 8402e40:	10c00217 	ldw	r3,8(r2)
 8402e44:	e0bfff17 	ldw	r2,-4(fp)
 8402e48:	1887883a 	add	r3,r3,r2
 8402e4c:	e0bffd17 	ldw	r2,-12(fp)
 8402e50:	10c00215 	stw	r3,8(r2)
    rc->bottom += y;
 8402e54:	e0bffd17 	ldw	r2,-12(fp)
 8402e58:	10c00317 	ldw	r3,12(r2)
 8402e5c:	e0bfff17 	ldw	r2,-4(fp)
 8402e60:	1887883a 	add	r3,r3,r2
 8402e64:	e0bffd17 	ldw	r2,-12(fp)
 8402e68:	10c00315 	stw	r3,12(r2)
}
 8402e6c:	0001883a 	nop
 8402e70:	e037883a 	mov	sp,fp
 8402e74:	df000017 	ldw	fp,0(sp)
 8402e78:	dec00104 	addi	sp,sp,4
 8402e7c:	f800283a 	ret

08402e80 <RectCopy>:

void RectCopy(RECT *rcDes, RECT *rcSrc){
 8402e80:	defffd04 	addi	sp,sp,-12
 8402e84:	df000215 	stw	fp,8(sp)
 8402e88:	df000204 	addi	fp,sp,8
 8402e8c:	e13ffe15 	stw	r4,-8(fp)
 8402e90:	e17fff15 	stw	r5,-4(fp)
    rcDes->left = rcSrc->left;
 8402e94:	e0bfff17 	ldw	r2,-4(fp)
 8402e98:	10c00017 	ldw	r3,0(r2)
 8402e9c:	e0bffe17 	ldw	r2,-8(fp)
 8402ea0:	10c00015 	stw	r3,0(r2)
    rcDes->right = rcSrc->right;
 8402ea4:	e0bfff17 	ldw	r2,-4(fp)
 8402ea8:	10c00117 	ldw	r3,4(r2)
 8402eac:	e0bffe17 	ldw	r2,-8(fp)
 8402eb0:	10c00115 	stw	r3,4(r2)
    rcDes->top = rcSrc->top;
 8402eb4:	e0bfff17 	ldw	r2,-4(fp)
 8402eb8:	10c00217 	ldw	r3,8(r2)
 8402ebc:	e0bffe17 	ldw	r2,-8(fp)
 8402ec0:	10c00215 	stw	r3,8(r2)
    rcDes->bottom = rcSrc->bottom;
 8402ec4:	e0bfff17 	ldw	r2,-4(fp)
 8402ec8:	10c00317 	ldw	r3,12(r2)
 8402ecc:	e0bffe17 	ldw	r2,-8(fp)
 8402ed0:	10c00315 	stw	r3,12(r2)
}
 8402ed4:	0001883a 	nop
 8402ed8:	e037883a 	mov	sp,fp
 8402edc:	df000017 	ldw	fp,0(sp)
 8402ee0:	dec00104 	addi	sp,sp,4
 8402ee4:	f800283a 	ret

08402ee8 <RectWidth>:

int RectWidth(RECT *rc){
 8402ee8:	defffe04 	addi	sp,sp,-8
 8402eec:	df000115 	stw	fp,4(sp)
 8402ef0:	df000104 	addi	fp,sp,4
 8402ef4:	e13fff15 	stw	r4,-4(fp)
    return (rc->right-rc->left);
 8402ef8:	e0bfff17 	ldw	r2,-4(fp)
 8402efc:	10c00117 	ldw	r3,4(r2)
 8402f00:	e0bfff17 	ldw	r2,-4(fp)
 8402f04:	10800017 	ldw	r2,0(r2)
 8402f08:	1885c83a 	sub	r2,r3,r2
}
 8402f0c:	e037883a 	mov	sp,fp
 8402f10:	df000017 	ldw	fp,0(sp)
 8402f14:	dec00104 	addi	sp,sp,4
 8402f18:	f800283a 	ret

08402f1c <RectHeight>:

int RectHeight(RECT *rc){
 8402f1c:	defffe04 	addi	sp,sp,-8
 8402f20:	df000115 	stw	fp,4(sp)
 8402f24:	df000104 	addi	fp,sp,4
 8402f28:	e13fff15 	stw	r4,-4(fp)
    return (rc->bottom-rc->top);
 8402f2c:	e0bfff17 	ldw	r2,-4(fp)
 8402f30:	10c00317 	ldw	r3,12(r2)
 8402f34:	e0bfff17 	ldw	r2,-4(fp)
 8402f38:	10800217 	ldw	r2,8(r2)
 8402f3c:	1885c83a 	sub	r2,r3,r2
}
 8402f40:	e037883a 	mov	sp,fp
 8402f44:	df000017 	ldw	fp,0(sp)
 8402f48:	dec00104 	addi	sp,sp,4
 8402f4c:	f800283a 	ret

08402f50 <PtDistance>:

int PtDistance(POINT *pt1, POINT *pt2){
 8402f50:	defff904 	addi	sp,sp,-28
 8402f54:	dfc00615 	stw	ra,24(sp)
 8402f58:	df000515 	stw	fp,20(sp)
 8402f5c:	df000504 	addi	fp,sp,20
 8402f60:	e13ffe15 	stw	r4,-8(fp)
 8402f64:	e17fff15 	stw	r5,-4(fp)
    int nDistance;
    int a, b;
    a = pt1->x - pt2->x;
 8402f68:	e0bffe17 	ldw	r2,-8(fp)
 8402f6c:	10c00017 	ldw	r3,0(r2)
 8402f70:	e0bfff17 	ldw	r2,-4(fp)
 8402f74:	10800017 	ldw	r2,0(r2)
 8402f78:	1885c83a 	sub	r2,r3,r2
 8402f7c:	e0bffb15 	stw	r2,-20(fp)
    b = pt1->y - pt2->y;
 8402f80:	e0bffe17 	ldw	r2,-8(fp)
 8402f84:	10c00117 	ldw	r3,4(r2)
 8402f88:	e0bfff17 	ldw	r2,-4(fp)
 8402f8c:	10800117 	ldw	r2,4(r2)
 8402f90:	1885c83a 	sub	r2,r3,r2
 8402f94:	e0bffc15 	stw	r2,-16(fp)
    nDistance = a*a + b*b;
 8402f98:	e0fffb17 	ldw	r3,-20(fp)
 8402f9c:	e0bffb17 	ldw	r2,-20(fp)
 8402fa0:	1887383a 	mul	r3,r3,r2
 8402fa4:	e13ffc17 	ldw	r4,-16(fp)
 8402fa8:	e0bffc17 	ldw	r2,-16(fp)
 8402fac:	2085383a 	mul	r2,r4,r2
 8402fb0:	1885883a 	add	r2,r3,r2
 8402fb4:	e0bffd15 	stw	r2,-12(fp)
    nDistance = sqrt(nDistance);
 8402fb8:	e13ffd17 	ldw	r4,-12(fp)
 8402fbc:	840a9dc0 	call	840a9dc <__floatsidf>
 8402fc0:	100b883a 	mov	r5,r2
 8402fc4:	180d883a 	mov	r6,r3
 8402fc8:	2809883a 	mov	r4,r5
 8402fcc:	300b883a 	mov	r5,r6
 8402fd0:	8407ffc0 	call	8407ffc <sqrt>
 8402fd4:	100b883a 	mov	r5,r2
 8402fd8:	180d883a 	mov	r6,r3
 8402fdc:	2809883a 	mov	r4,r5
 8402fe0:	300b883a 	mov	r5,r6
 8402fe4:	840a95c0 	call	840a95c <__fixdfsi>
 8402fe8:	e0bffd15 	stw	r2,-12(fp)
    
    return nDistance;
 8402fec:	e0bffd17 	ldw	r2,-12(fp)
}
 8402ff0:	e037883a 	mov	sp,fp
 8402ff4:	dfc00117 	ldw	ra,4(sp)
 8402ff8:	df000017 	ldw	fp,0(sp)
 8402ffc:	dec00204 	addi	sp,sp,8
 8403000:	f800283a 	ret

08403004 <PtCopy>:

void PtCopy(POINT *ptDes, POINT *ptSrc){
 8403004:	defffd04 	addi	sp,sp,-12
 8403008:	df000215 	stw	fp,8(sp)
 840300c:	df000204 	addi	fp,sp,8
 8403010:	e13ffe15 	stw	r4,-8(fp)
 8403014:	e17fff15 	stw	r5,-4(fp)
    ptDes->x = ptSrc->x;
 8403018:	e0bfff17 	ldw	r2,-4(fp)
 840301c:	10c00017 	ldw	r3,0(r2)
 8403020:	e0bffe17 	ldw	r2,-8(fp)
 8403024:	10c00015 	stw	r3,0(r2)
    ptDes->y = ptSrc->y;
 8403028:	e0bfff17 	ldw	r2,-4(fp)
 840302c:	10c00117 	ldw	r3,4(r2)
 8403030:	e0bffe17 	ldw	r2,-8(fp)
 8403034:	10c00115 	stw	r3,4(r2)
}
 8403038:	0001883a 	nop
 840303c:	e037883a 	mov	sp,fp
 8403040:	df000017 	ldw	fp,0(sp)
 8403044:	dec00104 	addi	sp,sp,4
 8403048:	f800283a 	ret

0840304c <GUI_ShowWelcome>:
    RECT rcPaint;						//rettangolo in cui si scrive
    PALETTE_INFO szPalette[BTN_NUM];	//vettore di pulsanti colorati
}DESK_INFO;


void GUI_ShowWelcome(alt_video_display *pDisplay){
 840304c:	defff804 	addi	sp,sp,-32
 8403050:	dfc00715 	stw	ra,28(sp)
 8403054:	df000615 	stw	fp,24(sp)
 8403058:	df000604 	addi	fp,sp,24
 840305c:	e13fff15 	stw	r4,-4(fp)
	int x, y;

	x = pDisplay->width / 2 - 60;
 8403060:	e0bfff17 	ldw	r2,-4(fp)
 8403064:	10800117 	ldw	r2,4(r2)
 8403068:	1006d7fa 	srli	r3,r2,31
 840306c:	1885883a 	add	r2,r3,r2
 8403070:	1005d07a 	srai	r2,r2,1
 8403074:	10bff104 	addi	r2,r2,-60
 8403078:	e0bffd15 	stw	r2,-12(fp)
	y = pDisplay->height / 2 - 10;
 840307c:	e0bfff17 	ldw	r2,-4(fp)
 8403080:	10800217 	ldw	r2,8(r2)
 8403084:	1006d7fa 	srli	r3,r2,31
 8403088:	1885883a 	add	r2,r3,r2
 840308c:	1005d07a 	srai	r2,r2,1
 8403090:	10bffd84 	addi	r2,r2,-10
 8403094:	e0bffe15 	stw	r2,-8(fp)

	vid_print_string_alpha(x, y, BLUE_24, BLACK_24, tahomabold_20, pDisplay, "Terasic");
 8403098:	00821134 	movhi	r2,2116
 840309c:	10942204 	addi	r2,r2,20616
 84030a0:	d8800215 	stw	r2,8(sp)
 84030a4:	e0bfff17 	ldw	r2,-4(fp)
 84030a8:	d8800115 	stw	r2,4(sp)
 84030ac:	00821134 	movhi	r2,2116
 84030b0:	10952c04 	addi	r2,r2,21680
 84030b4:	d8800015 	stw	r2,0(sp)
 84030b8:	000f883a 	mov	r7,zero
 84030bc:	01803fc4 	movi	r6,255
 84030c0:	e17ffe17 	ldw	r5,-8(fp)
 84030c4:	e13ffd17 	ldw	r4,-12(fp)
 84030c8:	8406b580 	call	8406b58 <vid_print_string_alpha>
	vid_print_string_alpha(x, y+22, BLUE_24, BLACK_24, tahomabold_20, pDisplay, "Touch Demo");
 84030cc:	e0bffe17 	ldw	r2,-8(fp)
 84030d0:	10c00584 	addi	r3,r2,22
 84030d4:	00821134 	movhi	r2,2116
 84030d8:	10942404 	addi	r2,r2,20624
 84030dc:	d8800215 	stw	r2,8(sp)
 84030e0:	e0bfff17 	ldw	r2,-4(fp)
 84030e4:	d8800115 	stw	r2,4(sp)
 84030e8:	00821134 	movhi	r2,2116
 84030ec:	10952c04 	addi	r2,r2,21680
 84030f0:	d8800015 	stw	r2,0(sp)
 84030f4:	000f883a 	mov	r7,zero
 84030f8:	01803fc4 	movi	r6,255
 84030fc:	180b883a 	mov	r5,r3
 8403100:	e13ffd17 	ldw	r4,-12(fp)
 8403104:	8406b580 	call	8406b58 <vid_print_string_alpha>

}
 8403108:	0001883a 	nop
 840310c:	e037883a 	mov	sp,fp
 8403110:	dfc00117 	ldw	ra,4(sp)
 8403114:	df000017 	ldw	fp,0(sp)
 8403118:	dec00204 	addi	sp,sp,8
 840311c:	f800283a 	ret

08403120 <GUI_DeskInit>:

void GUI_DeskInit(alt_video_display *pDisplay, DESK_INFO *pDeskInfo){
 8403120:	deffef04 	addi	sp,sp,-68
 8403124:	dfc01015 	stw	ra,64(sp)
 8403128:	df000f15 	stw	fp,60(sp)
 840312c:	df000f04 	addi	fp,sp,60
 8403130:	e13ffe15 	stw	r4,-8(fp)
 8403134:	e17fff15 	stw	r5,-4(fp)
    int i;
    RECT rc;
    /*dimensioni pulsanti*/
    const int BoxH = 40;
 8403138:	00800a04 	movi	r2,40
 840313c:	e0bff315 	stw	r2,-52(fp)
    const int BoxW = 40;
 8403140:	00800a04 	movi	r2,40
 8403144:	e0bff415 	stw	r2,-48(fp)

    const int GapH = 5;
 8403148:	00800144 	movi	r2,5
 840314c:	e0bff515 	stw	r2,-44(fp)
    const int DrawBorder = 2;
 8403150:	00800084 	movi	r2,2
 8403154:	e0bff615 	stw	r2,-40(fp)
    const int TextW = 0;
 8403158:	e03ff715 	stw	zero,-36(fp)
    const int ClearExtraW = 30;
 840315c:	00800784 	movi	r2,30
 8403160:	e0bff815 	stw	r2,-32(fp)
    int GapW;						//gap tra i pulsanti

    GapW = (pDisplay->width - TextW - ClearExtraW - (BTN_NUM*BoxW))/(BTN_NUM+1);
 8403164:	e0bffe17 	ldw	r2,-8(fp)
 8403168:	10c00117 	ldw	r3,4(r2)
 840316c:	e0bff717 	ldw	r2,-36(fp)
 8403170:	1887c83a 	sub	r3,r3,r2
 8403174:	e0bff817 	ldw	r2,-32(fp)
 8403178:	1887c83a 	sub	r3,r3,r2
 840317c:	e0bff417 	ldw	r2,-48(fp)
 8403180:	10bffee4 	muli	r2,r2,-5
 8403184:	1885883a 	add	r2,r3,r2
 8403188:	01400184 	movi	r5,6
 840318c:	1009883a 	mov	r4,r2
 8403190:	84084300 	call	8408430 <__divsi3>
 8403194:	e0bff915 	stw	r2,-28(fp)
    //printf("GapW=%d\r\n", GapW);

    //confini pulsante in basso a sinistra (i pixel si contano dall'alto verso il basso e da sx a dx)
    rc.top = pDisplay->height - BoxH - GapH;
 8403198:	e0bffe17 	ldw	r2,-8(fp)
 840319c:	10c00217 	ldw	r3,8(r2)
 84031a0:	e0bff317 	ldw	r2,-52(fp)
 84031a4:	1887c83a 	sub	r3,r3,r2
 84031a8:	e0bff517 	ldw	r2,-44(fp)
 84031ac:	1885c83a 	sub	r2,r3,r2
 84031b0:	e0bffc15 	stw	r2,-16(fp)
    rc.bottom = rc.top + BoxH;
 84031b4:	e0fffc17 	ldw	r3,-16(fp)
 84031b8:	e0bff317 	ldw	r2,-52(fp)
 84031bc:	1885883a 	add	r2,r3,r2
 84031c0:	e0bffd15 	stw	r2,-12(fp)
    rc.left = GapW + TextW + ClearExtraW;
 84031c4:	e0fff917 	ldw	r3,-28(fp)
 84031c8:	e0bff717 	ldw	r2,-36(fp)
 84031cc:	1887883a 	add	r3,r3,r2
 84031d0:	e0bff817 	ldw	r2,-32(fp)
 84031d4:	1885883a 	add	r2,r3,r2
 84031d8:	e0bffa15 	stw	r2,-24(fp)
    rc.right = rc.left + BoxW;
 84031dc:	e0fffa17 	ldw	r3,-24(fp)
 84031e0:	e0bff417 	ldw	r2,-48(fp)
 84031e4:	1885883a 	add	r2,r3,r2
 84031e8:	e0bffb15 	stw	r2,-20(fp)
    
    // desk drawing area    
    RectSet(&pDeskInfo->rcPaint, DrawBorder, pDisplay->width-DrawBorder, DrawBorder, rc.top - DrawBorder);
 84031ec:	e0bfff17 	ldw	r2,-4(fp)
 84031f0:	11000104 	addi	r4,r2,4
 84031f4:	e0bffe17 	ldw	r2,-8(fp)
 84031f8:	10c00117 	ldw	r3,4(r2)
 84031fc:	e0bff617 	ldw	r2,-40(fp)
 8403200:	188bc83a 	sub	r5,r3,r2
 8403204:	e0fffc17 	ldw	r3,-16(fp)
 8403208:	e0bff617 	ldw	r2,-40(fp)
 840320c:	1885c83a 	sub	r2,r3,r2
 8403210:	d8800015 	stw	r2,0(sp)
 8403214:	e1fff617 	ldw	r7,-40(fp)
 8403218:	280d883a 	mov	r6,r5
 840321c:	e17ff617 	ldw	r5,-40(fp)
 8403220:	8402d080 	call	8402d08 <RectSet>
    
    //disegno BTN_NUM(5) pulsanti inizializzati bianchi
    for(i=0;i<BTN_NUM;i++){
 8403224:	e03ff215 	stw	zero,-56(fp)
 8403228:	00002206 	br	84032b4 <GUI_DeskInit+0x194>
        RectCopy(&pDeskInfo->szPalette[i].rc, &rc);
 840322c:	e0bff217 	ldw	r2,-56(fp)
 8403230:	10800044 	addi	r2,r2,1
 8403234:	10800524 	muli	r2,r2,20
 8403238:	e0ffff17 	ldw	r3,-4(fp)
 840323c:	1885883a 	add	r2,r3,r2
 8403240:	e0fffa04 	addi	r3,fp,-24
 8403244:	180b883a 	mov	r5,r3
 8403248:	1009883a 	mov	r4,r2
 840324c:	8402e800 	call	8402e80 <RectCopy>
        pDeskInfo->szPalette[i].color = szPallete[i];		//definisco il colore dei pulsanti
 8403250:	00821134 	movhi	r2,2116
 8403254:	109b0c04 	addi	r2,r2,27696
 8403258:	e0fff217 	ldw	r3,-56(fp)
 840325c:	18c7883a 	add	r3,r3,r3
 8403260:	18c7883a 	add	r3,r3,r3
 8403264:	10c5883a 	add	r2,r2,r3
 8403268:	10800017 	ldw	r2,0(r2)
 840326c:	1009883a 	mov	r4,r2
 8403270:	e0ffff17 	ldw	r3,-4(fp)
 8403274:	e0bff217 	ldw	r2,-56(fp)
 8403278:	10800524 	muli	r2,r2,20
 840327c:	1885883a 	add	r2,r3,r2
 8403280:	10800904 	addi	r2,r2,36
 8403284:	11000015 	stw	r4,0(r2)
        RectOffset(&rc, BoxW+GapW, 0);						//mi sposto verso destra per disegnare il prossimo pulsante
 8403288:	e0fff417 	ldw	r3,-48(fp)
 840328c:	e0bff917 	ldw	r2,-28(fp)
 8403290:	1887883a 	add	r3,r3,r2
 8403294:	e0bffa04 	addi	r2,fp,-24
 8403298:	000d883a 	mov	r6,zero
 840329c:	180b883a 	mov	r5,r3
 84032a0:	1009883a 	mov	r4,r2
 84032a4:	8402df40 	call	8402df4 <RectOffset>
    
    // desk drawing area    
    RectSet(&pDeskInfo->rcPaint, DrawBorder, pDisplay->width-DrawBorder, DrawBorder, rc.top - DrawBorder);
    
    //disegno BTN_NUM(5) pulsanti inizializzati bianchi
    for(i=0;i<BTN_NUM;i++){
 84032a8:	e0bff217 	ldw	r2,-56(fp)
 84032ac:	10800044 	addi	r2,r2,1
 84032b0:	e0bff215 	stw	r2,-56(fp)
 84032b4:	e0bff217 	ldw	r2,-56(fp)
 84032b8:	10800150 	cmplti	r2,r2,5
 84032bc:	103fdb1e 	bne	r2,zero,840322c <__alt_data_end+0xfc40322c>
        RectCopy(&pDeskInfo->szPalette[i].rc, &rc);
        pDeskInfo->szPalette[i].color = szPallete[i];		//definisco il colore dei pulsanti
        RectOffset(&rc, BoxW+GapW, 0);						//mi sposto verso destra per disegnare il prossimo pulsante
    }
    pDeskInfo->szPalette[BTN_CLEAR].rc.left -= ClearExtraW;
 84032c0:	e0bfff17 	ldw	r2,-4(fp)
 84032c4:	10c00517 	ldw	r3,20(r2)
 84032c8:	e0bff817 	ldw	r2,-32(fp)
 84032cc:	1887c83a 	sub	r3,r3,r2
 84032d0:	e0bfff17 	ldw	r2,-4(fp)
 84032d4:	10c00515 	stw	r3,20(r2)
    pDeskInfo->Paint_Index = BTN_BLUE;
 84032d8:	e0bfff17 	ldw	r2,-4(fp)
 84032dc:	00c00084 	movi	r3,2
 84032e0:	10c00015 	stw	r3,0(r2)
}
 84032e4:	0001883a 	nop
 84032e8:	e037883a 	mov	sp,fp
 84032ec:	dfc00117 	ldw	ra,4(sp)
 84032f0:	df000017 	ldw	fp,0(sp)
 84032f4:	dec00204 	addi	sp,sp,8
 84032f8:	f800283a 	ret

084032fc <GUI_CheckButton>:

int GUI_CheckButton(DESK_INFO *pDeskInfo, POINT *pt){
 84032fc:	defffa04 	addi	sp,sp,-24
 8403300:	dfc00515 	stw	ra,20(sp)
 8403304:	df000415 	stw	fp,16(sp)
 8403308:	df000404 	addi	fp,sp,16
 840330c:	e13ffe15 	stw	r4,-8(fp)
 8403310:	e17fff15 	stw	r5,-4(fp)
    int ButtonId = BTN_NONE;
 8403314:	00800184 	movi	r2,6
 8403318:	e0bffc15 	stw	r2,-16(fp)
    int i;
    
    for(i=0;i<BTN_NUM && (ButtonId == BTN_NONE);i++){
 840331c:	e03ffd15 	stw	zero,-12(fp)
 8403320:	00000e06 	br	840335c <GUI_CheckButton+0x60>
        if (IsPtInRect(pt, &pDeskInfo->szPalette[i].rc))
 8403324:	e0bffd17 	ldw	r2,-12(fp)
 8403328:	10800044 	addi	r2,r2,1
 840332c:	10800524 	muli	r2,r2,20
 8403330:	e0fffe17 	ldw	r3,-8(fp)
 8403334:	1885883a 	add	r2,r3,r2
 8403338:	100b883a 	mov	r5,r2
 840333c:	e13fff17 	ldw	r4,-4(fp)
 8403340:	8402c400 	call	8402c40 <IsPtInRect>
 8403344:	10000226 	beq	r2,zero,8403350 <GUI_CheckButton+0x54>
            ButtonId = i;
 8403348:	e0bffd17 	ldw	r2,-12(fp)
 840334c:	e0bffc15 	stw	r2,-16(fp)

int GUI_CheckButton(DESK_INFO *pDeskInfo, POINT *pt){
    int ButtonId = BTN_NONE;
    int i;
    
    for(i=0;i<BTN_NUM && (ButtonId == BTN_NONE);i++){
 8403350:	e0bffd17 	ldw	r2,-12(fp)
 8403354:	10800044 	addi	r2,r2,1
 8403358:	e0bffd15 	stw	r2,-12(fp)
 840335c:	e0bffd17 	ldw	r2,-12(fp)
 8403360:	10800148 	cmpgei	r2,r2,5
 8403364:	1000031e 	bne	r2,zero,8403374 <GUI_CheckButton+0x78>
 8403368:	e0bffc17 	ldw	r2,-16(fp)
 840336c:	108001a0 	cmpeqi	r2,r2,6
 8403370:	103fec1e 	bne	r2,zero,8403324 <__alt_data_end+0xfc403324>
        if (IsPtInRect(pt, &pDeskInfo->szPalette[i].rc))
            ButtonId = i;
    }
    return ButtonId;
 8403374:	e0bffc17 	ldw	r2,-16(fp)
}
 8403378:	e037883a 	mov	sp,fp
 840337c:	dfc00117 	ldw	ra,4(sp)
 8403380:	df000017 	ldw	fp,0(sp)
 8403384:	dec00204 	addi	sp,sp,8
 8403388:	f800283a 	ret

0840338c <GUI_DeskDraw>:

void GUI_DeskDraw(alt_video_display *pDisplay, DESK_INFO *pDeskInfo){
 840338c:	defff104 	addi	sp,sp,-60
 8403390:	dfc00e15 	stw	ra,56(sp)
 8403394:	df000d15 	stw	fp,52(sp)
 8403398:	dc400c15 	stw	r17,48(sp)
 840339c:	dc000b15 	stw	r16,44(sp)
 84033a0:	df000d04 	addi	fp,sp,52
 84033a4:	e13ffc15 	stw	r4,-16(fp)
 84033a8:	e17ffd15 	stw	r5,-12(fp)
    int i, active;
    RECT rc;
    
    // draw border (bordo bianco che delimita l'area di scrittura)
    RectCopy(&rc, &pDeskInfo->rcPaint);
 84033ac:	e0bffd17 	ldw	r2,-12(fp)
 84033b0:	10c00104 	addi	r3,r2,4
 84033b4:	e0bff804 	addi	r2,fp,-32
 84033b8:	180b883a 	mov	r5,r3
 84033bc:	1009883a 	mov	r4,r2
 84033c0:	8402e800 	call	8402e80 <RectCopy>
    vid_draw_box (rc.left, rc.top, rc.right, rc.bottom, WHITE_24, DO_NOT_FILL, pDisplay);
 84033c4:	e0fff817 	ldw	r3,-32(fp)
 84033c8:	e13ffa17 	ldw	r4,-24(fp)
 84033cc:	e17ff917 	ldw	r5,-28(fp)
 84033d0:	e1bffb17 	ldw	r6,-20(fp)
 84033d4:	e0bffc17 	ldw	r2,-16(fp)
 84033d8:	d8800215 	stw	r2,8(sp)
 84033dc:	d8000115 	stw	zero,4(sp)
 84033e0:	00804034 	movhi	r2,256
 84033e4:	10bfffc4 	addi	r2,r2,-1
 84033e8:	d8800015 	stw	r2,0(sp)
 84033ec:	300f883a 	mov	r7,r6
 84033f0:	280d883a 	mov	r6,r5
 84033f4:	200b883a 	mov	r5,r4
 84033f8:	1809883a 	mov	r4,r3
 84033fc:	8404ca00 	call	8404ca0 <vid_draw_box>
    

    // draw palette (disegno i pulsanti)
	active = pDeskInfo->Paint_Index;
 8403400:	e0bffd17 	ldw	r2,-12(fp)
 8403404:	10800017 	ldw	r2,0(r2)
 8403408:	e0bff715 	stw	r2,-36(fp)
    for(i=0;i<BTN_NUM;i++){
 840340c:	e03ff615 	stw	zero,-40(fp)
 8403410:	00006206 	br	840359c <GUI_DeskDraw+0x210>
        RectCopy(&rc, &(pDeskInfo->szPalette[i].rc));
 8403414:	e0bff617 	ldw	r2,-40(fp)
 8403418:	10800044 	addi	r2,r2,1
 840341c:	10800524 	muli	r2,r2,20
 8403420:	e0fffd17 	ldw	r3,-12(fp)
 8403424:	1887883a 	add	r3,r3,r2
 8403428:	e0bff804 	addi	r2,fp,-32
 840342c:	180b883a 	mov	r5,r3
 8403430:	1009883a 	mov	r4,r2
 8403434:	8402e800 	call	8402e80 <RectCopy>
        if (i == BTN_CLEAR){
 8403438:	e0bff617 	ldw	r2,-40(fp)
 840343c:	10002e1e 	bne	r2,zero,84034f8 <GUI_DeskDraw+0x16c>
            vid_draw_box (rc.left, rc.top, rc.right, rc.bottom, pDeskInfo->szPalette[i].color, DO_NOT_FILL, pDisplay);
 8403440:	e13ff817 	ldw	r4,-32(fp)
 8403444:	e17ffa17 	ldw	r5,-24(fp)
 8403448:	e1bff917 	ldw	r6,-28(fp)
 840344c:	e1fffb17 	ldw	r7,-20(fp)
 8403450:	e0fffd17 	ldw	r3,-12(fp)
 8403454:	e0bff617 	ldw	r2,-40(fp)
 8403458:	10800524 	muli	r2,r2,20
 840345c:	1885883a 	add	r2,r3,r2
 8403460:	10800904 	addi	r2,r2,36
 8403464:	10800017 	ldw	r2,0(r2)
 8403468:	e0fffc17 	ldw	r3,-16(fp)
 840346c:	d8c00215 	stw	r3,8(sp)
 8403470:	d8000115 	stw	zero,4(sp)
 8403474:	d8800015 	stw	r2,0(sp)
 8403478:	8404ca00 	call	8404ca0 <vid_draw_box>
            vid_print_string_alpha(rc.left+8, rc.top+(RectHeight(&rc)-22)/2, pDeskInfo->szPalette[i].color, BLACK_24, tahomabold_20, pDisplay, "Clear");
 840347c:	e0bff817 	ldw	r2,-32(fp)
 8403480:	14400204 	addi	r17,r2,8
 8403484:	e43ffa17 	ldw	r16,-24(fp)
 8403488:	e0bff804 	addi	r2,fp,-32
 840348c:	1009883a 	mov	r4,r2
 8403490:	8402f1c0 	call	8402f1c <RectHeight>
 8403494:	10bffa84 	addi	r2,r2,-22
 8403498:	1006d7fa 	srli	r3,r2,31
 840349c:	1885883a 	add	r2,r3,r2
 84034a0:	1005d07a 	srai	r2,r2,1
 84034a4:	8089883a 	add	r4,r16,r2
 84034a8:	e0fffd17 	ldw	r3,-12(fp)
 84034ac:	e0bff617 	ldw	r2,-40(fp)
 84034b0:	10800524 	muli	r2,r2,20
 84034b4:	1885883a 	add	r2,r3,r2
 84034b8:	10800904 	addi	r2,r2,36
 84034bc:	10c00017 	ldw	r3,0(r2)
 84034c0:	00821134 	movhi	r2,2116
 84034c4:	10942704 	addi	r2,r2,20636
 84034c8:	d8800215 	stw	r2,8(sp)
 84034cc:	e0bffc17 	ldw	r2,-16(fp)
 84034d0:	d8800115 	stw	r2,4(sp)
 84034d4:	00821134 	movhi	r2,2116
 84034d8:	10952c04 	addi	r2,r2,21680
 84034dc:	d8800015 	stw	r2,0(sp)
 84034e0:	000f883a 	mov	r7,zero
 84034e4:	180d883a 	mov	r6,r3
 84034e8:	200b883a 	mov	r5,r4
 84034ec:	8809883a 	mov	r4,r17
 84034f0:	8406b580 	call	8406b58 <vid_print_string_alpha>
 84034f4:	00002606 	br	8403590 <GUI_DeskDraw+0x204>
        }else{
        	if (active != i){
 84034f8:	e0fff717 	ldw	r3,-36(fp)
 84034fc:	e0bff617 	ldw	r2,-40(fp)
 8403500:	18801326 	beq	r3,r2,8403550 <GUI_DeskDraw+0x1c4>
          		vid_draw_box (rc.left, rc.top, rc.right, rc.bottom, BLACK_24, DO_FILL, pDisplay);
 8403504:	e0fff817 	ldw	r3,-32(fp)
 8403508:	e13ffa17 	ldw	r4,-24(fp)
 840350c:	e17ff917 	ldw	r5,-28(fp)
 8403510:	e1bffb17 	ldw	r6,-20(fp)
 8403514:	e0bffc17 	ldw	r2,-16(fp)
 8403518:	d8800215 	stw	r2,8(sp)
 840351c:	00800044 	movi	r2,1
 8403520:	d8800115 	stw	r2,4(sp)
 8403524:	d8000015 	stw	zero,0(sp)
 8403528:	300f883a 	mov	r7,r6
 840352c:	280d883a 	mov	r6,r5
 8403530:	200b883a 	mov	r5,r4
 8403534:	1809883a 	mov	r4,r3
 8403538:	8404ca00 	call	8404ca0 <vid_draw_box>
        		RectInflate(&rc, -4, -4);
 840353c:	e0bff804 	addi	r2,fp,-32
 8403540:	01bfff04 	movi	r6,-4
 8403544:	017fff04 	movi	r5,-4
 8403548:	1009883a 	mov	r4,r2
 840354c:	8402d680 	call	8402d68 <RectInflate>
        	}
      		vid_draw_box (rc.left, rc.top, rc.right, rc.bottom, pDeskInfo->szPalette[i].color, DO_FILL, pDisplay);
 8403550:	e13ff817 	ldw	r4,-32(fp)
 8403554:	e17ffa17 	ldw	r5,-24(fp)
 8403558:	e1bff917 	ldw	r6,-28(fp)
 840355c:	e1fffb17 	ldw	r7,-20(fp)
 8403560:	e0fffd17 	ldw	r3,-12(fp)
 8403564:	e0bff617 	ldw	r2,-40(fp)
 8403568:	10800524 	muli	r2,r2,20
 840356c:	1885883a 	add	r2,r3,r2
 8403570:	10800904 	addi	r2,r2,36
 8403574:	10800017 	ldw	r2,0(r2)
 8403578:	e0fffc17 	ldw	r3,-16(fp)
 840357c:	d8c00215 	stw	r3,8(sp)
 8403580:	00c00044 	movi	r3,1
 8403584:	d8c00115 	stw	r3,4(sp)
 8403588:	d8800015 	stw	r2,0(sp)
 840358c:	8404ca00 	call	8404ca0 <vid_draw_box>
    vid_draw_box (rc.left, rc.top, rc.right, rc.bottom, WHITE_24, DO_NOT_FILL, pDisplay);
    

    // draw palette (disegno i pulsanti)
	active = pDeskInfo->Paint_Index;
    for(i=0;i<BTN_NUM;i++){
 8403590:	e0bff617 	ldw	r2,-40(fp)
 8403594:	10800044 	addi	r2,r2,1
 8403598:	e0bff615 	stw	r2,-40(fp)
 840359c:	e0bff617 	ldw	r2,-40(fp)
 84035a0:	10800150 	cmplti	r2,r2,5
 84035a4:	103f9b1e 	bne	r2,zero,8403414 <__alt_data_end+0xfc403414>
        		RectInflate(&rc, -4, -4);
        	}
      		vid_draw_box (rc.left, rc.top, rc.right, rc.bottom, pDeskInfo->szPalette[i].color, DO_FILL, pDisplay);
        }            
    }
}
 84035a8:	0001883a 	nop
 84035ac:	e6fffe04 	addi	sp,fp,-8
 84035b0:	dfc00317 	ldw	ra,12(sp)
 84035b4:	df000217 	ldw	fp,8(sp)
 84035b8:	dc400117 	ldw	r17,4(sp)
 84035bc:	dc000017 	ldw	r16,0(sp)
 84035c0:	dec00404 	addi	sp,sp,16
 84035c4:	f800283a 	ret

084035c8 <IsContinuedPoint>:


bool IsContinuedPoint(POINT *ptPre, POINT *ptNew){
 84035c8:	defffb04 	addi	sp,sp,-20
 84035cc:	df000415 	stw	fp,16(sp)
 84035d0:	df000404 	addi	fp,sp,16
 84035d4:	e13ffe15 	stw	r4,-8(fp)
 84035d8:	e17fff15 	stw	r5,-4(fp)
    bool bYes = TRUE;
 84035dc:	00800044 	movi	r2,1
 84035e0:	e0bffc15 	stw	r2,-16(fp)
    const int nMax = 50;
 84035e4:	00800c84 	movi	r2,50
 84035e8:	e0bffd15 	stw	r2,-12(fp)
    if (abs(ptPre->x - ptNew->x) > nMax)
 84035ec:	e0bffe17 	ldw	r2,-8(fp)
 84035f0:	10c00017 	ldw	r3,0(r2)
 84035f4:	e0bfff17 	ldw	r2,-4(fp)
 84035f8:	10800017 	ldw	r2,0(r2)
 84035fc:	1885c83a 	sub	r2,r3,r2
 8403600:	1000010e 	bge	r2,zero,8403608 <IsContinuedPoint+0x40>
 8403604:	0085c83a 	sub	r2,zero,r2
 8403608:	1007883a 	mov	r3,r2
 840360c:	e0bffd17 	ldw	r2,-12(fp)
 8403610:	10c0020e 	bge	r2,r3,840361c <IsContinuedPoint+0x54>
        bYes = FALSE;
 8403614:	e03ffc15 	stw	zero,-16(fp)
 8403618:	00000b06 	br	8403648 <IsContinuedPoint+0x80>
    else if (abs(ptPre->y - ptNew->y) > nMax)
 840361c:	e0bffe17 	ldw	r2,-8(fp)
 8403620:	10c00117 	ldw	r3,4(r2)
 8403624:	e0bfff17 	ldw	r2,-4(fp)
 8403628:	10800117 	ldw	r2,4(r2)
 840362c:	1885c83a 	sub	r2,r3,r2
 8403630:	1000010e 	bge	r2,zero,8403638 <IsContinuedPoint+0x70>
 8403634:	0085c83a 	sub	r2,zero,r2
 8403638:	1007883a 	mov	r3,r2
 840363c:	e0bffd17 	ldw	r2,-12(fp)
 8403640:	10c0010e 	bge	r2,r3,8403648 <IsContinuedPoint+0x80>
        bYes = FALSE;
 8403644:	e03ffc15 	stw	zero,-16(fp)
        
    return bYes;
 8403648:	e0bffc17 	ldw	r2,-16(fp)
}
 840364c:	e037883a 	mov	sp,fp
 8403650:	df000017 	ldw	fp,0(sp)
 8403654:	dec00104 	addi	sp,sp,4
 8403658:	f800283a 	ret

0840365c <GUI_ClearPaintArea>:


void GUI_ClearPaintArea(alt_video_display *pDisplay, DESK_INFO *pDeskInfo){
 840365c:	defff504 	addi	sp,sp,-44
 8403660:	dfc00a15 	stw	ra,40(sp)
 8403664:	df000915 	stw	fp,36(sp)
 8403668:	df000904 	addi	fp,sp,36
 840366c:	e13ffe15 	stw	r4,-8(fp)
 8403670:	e17fff15 	stw	r5,-4(fp)
    RECT rc;
    RectCopy(&rc, &pDeskInfo->rcPaint);
 8403674:	e0bfff17 	ldw	r2,-4(fp)
 8403678:	10800104 	addi	r2,r2,4
 840367c:	100b883a 	mov	r5,r2
 8403680:	e13ffa04 	addi	r4,fp,-24
 8403684:	8402e800 	call	8402e80 <RectCopy>
    RectInflate(&rc, -1, -1);
 8403688:	01bfffc4 	movi	r6,-1
 840368c:	017fffc4 	movi	r5,-1
 8403690:	e13ffa04 	addi	r4,fp,-24
 8403694:	8402d680 	call	8402d68 <RectInflate>
    vid_draw_box (rc.left, rc.top, rc.right, rc.bottom, BLACK_24, DO_FILL, pDisplay);
 8403698:	e0fffa17 	ldw	r3,-24(fp)
 840369c:	e13ffc17 	ldw	r4,-16(fp)
 84036a0:	e17ffb17 	ldw	r5,-20(fp)
 84036a4:	e1bffd17 	ldw	r6,-12(fp)
 84036a8:	e0bffe17 	ldw	r2,-8(fp)
 84036ac:	d8800215 	stw	r2,8(sp)
 84036b0:	00800044 	movi	r2,1
 84036b4:	d8800115 	stw	r2,4(sp)
 84036b8:	d8000015 	stw	zero,0(sp)
 84036bc:	300f883a 	mov	r7,r6
 84036c0:	280d883a 	mov	r6,r5
 84036c4:	200b883a 	mov	r5,r4
 84036c8:	1809883a 	mov	r4,r3
 84036cc:	8404ca00 	call	8404ca0 <vid_draw_box>
}
 84036d0:	0001883a 	nop
 84036d4:	e037883a 	mov	sp,fp
 84036d8:	dfc00117 	ldw	ra,4(sp)
 84036dc:	df000017 	ldw	fp,0(sp)
 84036e0:	dec00204 	addi	sp,sp,8
 84036e4:	f800283a 	ret

084036e8 <GUI>:


void GUI(alt_video_display *pDisplay, TOUCH_HANDLE *pTouch){
 84036e8:	deffd004 	addi	sp,sp,-192
 84036ec:	dfc02f15 	stw	ra,188(sp)
 84036f0:	df002e15 	stw	fp,184(sp)
 84036f4:	df002e04 	addi	fp,sp,184
 84036f8:	e13ffe15 	stw	r4,-8(fp)
 84036fc:	e17fff15 	stw	r5,-4(fp)
    // video
    DESK_INFO DeskInfo;
    int X, Y;
    POINT Pt;
    const int nDotSize = DOT_SIZE;
 8403700:	00800144 	movi	r2,5
 8403704:	e0bfd615 	stw	r2,-168(fp)
    int ColorPen, ButtonId;
    bool UpdatePalette;
    //uint16_t img[SCREEN_WIDTH*SCREEN_WIDTH];
    
    // Schermata iniziale
	GUI_ShowWelcome(pDisplay);
 8403708:	e13ffe17 	ldw	r4,-8(fp)
 840370c:	840304c0 	call	840304c <GUI_ShowWelcome>
	usleep(1*1000*1000);
 8403710:	010003f4 	movhi	r4,15
 8403714:	21109004 	addi	r4,r4,16960
 8403718:	841a2180 	call	841a218 <usleep>
	vid_clean_screen(pDisplay, BLACK_24);
 840371c:	000b883a 	mov	r5,zero
 8403720:	e13ffe17 	ldw	r4,-8(fp)
 8403724:	840445c0 	call	840445c <vid_clean_screen>
    
    // clean screen
    vid_clean_screen(pDisplay, BLACK_24);
 8403728:	000b883a 	mov	r5,zero
 840372c:	e13ffe17 	ldw	r4,-8(fp)
 8403730:	840445c0 	call	840445c <vid_clean_screen>

    GUI_DeskInit(pDisplay, &DeskInfo);		//imposta i vari rettangoli
 8403734:	e0bfd804 	addi	r2,fp,-160
 8403738:	100b883a 	mov	r5,r2
 840373c:	e13ffe17 	ldw	r4,-8(fp)
 8403740:	84031200 	call	8403120 <GUI_DeskInit>
    GUI_DeskDraw(pDisplay, &DeskInfo);		//colora e riempie tutto
 8403744:	e0bfd804 	addi	r2,fp,-160
 8403748:	100b883a 	mov	r5,r2
 840374c:	e13ffe17 	ldw	r4,-8(fp)
 8403750:	840338c0 	call	840338c <GUI_DeskDraw>
    
    
    RectCopy(&rcTouch, &DeskInfo.rcPaint);
 8403754:	e0bfd804 	addi	r2,fp,-160
 8403758:	10c00104 	addi	r3,r2,4
 840375c:	e0bffa04 	addi	r2,fp,-24
 8403760:	180b883a 	mov	r5,r3
 8403764:	1009883a 	mov	r4,r2
 8403768:	8402e800 	call	8402e80 <RectCopy>
    RectInflate(&rcTouch, -nDotSize-2, -nDotSize-2);
 840376c:	00ffff84 	movi	r3,-2
 8403770:	e0bfd617 	ldw	r2,-168(fp)
 8403774:	1889c83a 	sub	r4,r3,r2
 8403778:	00ffff84 	movi	r3,-2
 840377c:	e0bfd617 	ldw	r2,-168(fp)
 8403780:	1887c83a 	sub	r3,r3,r2
 8403784:	e0bffa04 	addi	r2,fp,-24
 8403788:	180d883a 	mov	r6,r3
 840378c:	200b883a 	mov	r5,r4
 8403790:	1009883a 	mov	r4,r2
 8403794:	8402d680 	call	8402d68 <RectInflate>
    
    ColorPen = DeskInfo.szPalette[DeskInfo.Paint_Index].color;
 8403798:	e0bfd817 	ldw	r2,-160(fp)
 840379c:	10800524 	muli	r2,r2,20
 84037a0:	e0ffd404 	addi	r3,fp,-176
 84037a4:	1885883a 	add	r2,r3,r2
 84037a8:	10800d04 	addi	r2,r2,52
 84037ac:	10800017 	ldw	r2,0(r2)
 84037b0:	e0bfd415 	stw	r2,-176(fp)

   // PtSet(&ptGesture, DeskInfo.szPalette[BTN_GESTRUE].rc.left+5, DeskInfo.szPalette[BTN_GESTRUE].rc.top+5);

    while(1){
		// touch
		if (Touch_GetXY(pTouch, &X, &Y)){
 84037b4:	e0fff704 	addi	r3,fp,-36
 84037b8:	e0bff604 	addi	r2,fp,-40
 84037bc:	180d883a 	mov	r6,r3
 84037c0:	100b883a 	mov	r5,r2
 84037c4:	e13fff17 	ldw	r4,-4(fp)
 84037c8:	84077b80 	call	84077b8 <Touch_GetXY>
 84037cc:	103ff926 	beq	r2,zero,84037b4 <__alt_data_end+0xfc4037b4>
			/*IOWR(LED_BASE, 0x00, LedMask);
			LedMask <<= 1;
			if (LedMask == 0x00)
				LedMask = 0x01;*/

			printf("x=%d, y=%d\r\n", X,Y);
 84037d0:	e0bff617 	ldw	r2,-40(fp)
 84037d4:	e0fff717 	ldw	r3,-36(fp)
 84037d8:	180d883a 	mov	r6,r3
 84037dc:	100b883a 	mov	r5,r2
 84037e0:	01021134 	movhi	r4,2116
 84037e4:	21142904 	addi	r4,r4,20644
 84037e8:	840c4d00 	call	840c4d0 <printf>
			PtSet(&Pt, X, Y);
 84037ec:	e0fff617 	ldw	r3,-40(fp)
 84037f0:	e13ff717 	ldw	r4,-36(fp)
 84037f4:	e0bff804 	addi	r2,fp,-32
 84037f8:	200d883a 	mov	r6,r4
 84037fc:	180b883a 	mov	r5,r3
 8403800:	1009883a 	mov	r4,r2
 8403804:	8402cc40 	call	8402cc4 <PtSet>

			/*se c' tocco nell'area buona, coloro il punto toccato*/
			if ( IsPtInRect(&Pt, &rcTouch)){
 8403808:	e0fffa04 	addi	r3,fp,-24
 840380c:	e0bff804 	addi	r2,fp,-32
 8403810:	180b883a 	mov	r5,r3
 8403814:	1009883a 	mov	r4,r2
 8403818:	8402c400 	call	8402c40 <IsPtInRect>
 840381c:	10000c26 	beq	r2,zero,8403850 <GUI+0x168>
				vid_draw_circle(Pt.x, Pt.y, nDotSize, ColorPen, DO_FILL, pDisplay);
 8403820:	e0fff817 	ldw	r3,-32(fp)
 8403824:	e13ff917 	ldw	r4,-28(fp)
 8403828:	e0bffe17 	ldw	r2,-8(fp)
 840382c:	d8800115 	stw	r2,4(sp)
 8403830:	00800044 	movi	r2,1
 8403834:	d8800015 	stw	r2,0(sp)
 8403838:	e1ffd417 	ldw	r7,-176(fp)
 840383c:	e1bfd617 	ldw	r6,-168(fp)
 8403840:	200b883a 	mov	r5,r4
 8403844:	1809883a 	mov	r4,r3
 8403848:	84054f00 	call	84054f0 <vid_draw_circle>
 840384c:	003fd906 	br	84037b4 <__alt_data_end+0xfc4037b4>
			}
			/*se ho cliccato clear, pulisco*/
			else if (GUI_CheckButton(&DeskInfo, &Pt) == BTN_CLEAR){
 8403850:	e0fff804 	addi	r3,fp,-32
 8403854:	e0bfd804 	addi	r2,fp,-160
 8403858:	180b883a 	mov	r5,r3
 840385c:	1009883a 	mov	r4,r2
 8403860:	84032fc0 	call	84032fc <GUI_CheckButton>
 8403864:	1000071e 	bne	r2,zero,8403884 <GUI+0x19c>
				GUI_ClearPaintArea(pDisplay, &DeskInfo);
 8403868:	e0bfd804 	addi	r2,fp,-160
 840386c:	100b883a 	mov	r5,r2
 8403870:	e13ffe17 	ldw	r4,-8(fp)
 8403874:	840365c0 	call	840365c <GUI_ClearPaintArea>
				Touch_EmptyFifo(pTouch);
 8403878:	e13fff17 	ldw	r4,-4(fp)
 840387c:	840777c0 	call	840777c <Touch_EmptyFifo>
 8403880:	003fcc06 	br	84037b4 <__alt_data_end+0xfc4037b4>
				 * 			PtSet(&Pt, x, y);
				 * 			img[x+y*SCREEN_WIDTH]= vid_get_pixel(x, y, pDisplay)
				 * 			resize_image(&img, &mnist_img);
				 * 		}
				 * 	}*/
				ButtonId = GUI_CheckButton(&DeskInfo, &Pt);
 8403884:	e0fff804 	addi	r3,fp,-32
 8403888:	e0bfd804 	addi	r2,fp,-160
 840388c:	180b883a 	mov	r5,r3
 8403890:	1009883a 	mov	r4,r2
 8403894:	84032fc0 	call	84032fc <GUI_CheckButton>
 8403898:	e0bfd715 	stw	r2,-164(fp)
				UpdatePalette = FALSE;
 840389c:	e03fd515 	stw	zero,-172(fp)
				if (ButtonId != BTN_NONE && ButtonId != BTN_CLEAR){
 84038a0:	e0bfd717 	ldw	r2,-164(fp)
 84038a4:	108001a0 	cmpeqi	r2,r2,6
 84038a8:	103fc21e 	bne	r2,zero,84037b4 <__alt_data_end+0xfc4037b4>
 84038ac:	e0bfd717 	ldw	r2,-164(fp)
 84038b0:	103fc026 	beq	r2,zero,84037b4 <__alt_data_end+0xfc4037b4>
					// change draw color
					if ( ButtonId != DeskInfo.Paint_Index ){
 84038b4:	e0ffd817 	ldw	r3,-160(fp)
 84038b8:	e0bfd717 	ldw	r2,-164(fp)
 84038bc:	18800426 	beq	r3,r2,84038d0 <GUI+0x1e8>
						DeskInfo.Paint_Index = ButtonId;
 84038c0:	e0bfd717 	ldw	r2,-164(fp)
 84038c4:	e0bfd815 	stw	r2,-160(fp)
						UpdatePalette = TRUE;
 84038c8:	00800044 	movi	r2,1
 84038cc:	e0bfd515 	stw	r2,-172(fp)
						//
					}

					if (UpdatePalette){
 84038d0:	e0bfd517 	ldw	r2,-172(fp)
 84038d4:	103fb726 	beq	r2,zero,84037b4 <__alt_data_end+0xfc4037b4>
						ColorPen = DeskInfo.szPalette[DeskInfo.Paint_Index].color;
 84038d8:	e0bfd817 	ldw	r2,-160(fp)
 84038dc:	10800524 	muli	r2,r2,20
 84038e0:	e0ffd404 	addi	r3,fp,-176
 84038e4:	1885883a 	add	r2,r3,r2
 84038e8:	10800d04 	addi	r2,r2,52
 84038ec:	10800017 	ldw	r2,0(r2)
 84038f0:	e0bfd415 	stw	r2,-176(fp)
						GUI_DeskDraw(pDisplay, &DeskInfo);
 84038f4:	e0bfd804 	addi	r2,fp,-160
 84038f8:	100b883a 	mov	r5,r2
 84038fc:	e13ffe17 	ldw	r4,-8(fp)
 8403900:	840338c0 	call	840338c <GUI_DeskDraw>
						Touch_EmptyFifo(pTouch);
 8403904:	e13fff17 	ldw	r4,-4(fp)
 8403908:	840777c0 	call	840777c <Touch_EmptyFifo>
					}
				}
			}
		} // if touch
    } // while
 840390c:	003fa906 	br	84037b4 <__alt_data_end+0xfc4037b4>

08403910 <GUI_ShowInfo>:
    
}



void GUI_ShowInfo(alt_video_display *pDisplay, char *pText){
 8403910:	defff904 	addi	sp,sp,-28
 8403914:	dfc00615 	stw	ra,24(sp)
 8403918:	df000515 	stw	fp,20(sp)
 840391c:	df000504 	addi	fp,sp,20
 8403920:	e13ffe15 	stw	r4,-8(fp)
 8403924:	e17fff15 	stw	r5,-4(fp)
    static int x=0,y=100;
   // vid_clean_screen(pReader, BLACK_24);
    vid_print_string_alpha(x, y, BLUE_24, BLACK_24, tahomabold_20, pDisplay, pText);
 8403928:	d0edbc17 	ldw	r3,-18704(gp)
 840392c:	d1200017 	ldw	r4,-32768(gp)
 8403930:	e0bfff17 	ldw	r2,-4(fp)
 8403934:	d8800215 	stw	r2,8(sp)
 8403938:	e0bffe17 	ldw	r2,-8(fp)
 840393c:	d8800115 	stw	r2,4(sp)
 8403940:	00821134 	movhi	r2,2116
 8403944:	10952c04 	addi	r2,r2,21680
 8403948:	d8800015 	stw	r2,0(sp)
 840394c:	000f883a 	mov	r7,zero
 8403950:	01803fc4 	movi	r6,255
 8403954:	200b883a 	mov	r5,r4
 8403958:	1809883a 	mov	r4,r3
 840395c:	8406b580 	call	8406b58 <vid_print_string_alpha>
}
 8403960:	0001883a 	nop
 8403964:	e037883a 	mov	sp,fp
 8403968:	dfc00117 	ldw	ra,4(sp)
 840396c:	df000017 	ldw	fp,0(sp)
 8403970:	dec00204 	addi	sp,sp,8
 8403974:	f800283a 	ret

08403978 <GUI_ShowTouchPoint>:

void GUI_ShowTouchPoint(alt_video_display *pDisplay, int X, int Y, int color){
 8403978:	defff804 	addi	sp,sp,-32
 840397c:	dfc00715 	stw	ra,28(sp)
 8403980:	df000615 	stw	fp,24(sp)
 8403984:	df000604 	addi	fp,sp,24
 8403988:	e13ffc15 	stw	r4,-16(fp)
 840398c:	e17ffd15 	stw	r5,-12(fp)
 8403990:	e1bffe15 	stw	r6,-8(fp)
 8403994:	e1ffff15 	stw	r7,-4(fp)
    vid_draw_circle(X, Y, 10, color, DO_FILL, pDisplay);
 8403998:	e0bffc17 	ldw	r2,-16(fp)
 840399c:	d8800115 	stw	r2,4(sp)
 84039a0:	00800044 	movi	r2,1
 84039a4:	d8800015 	stw	r2,0(sp)
 84039a8:	e1ffff17 	ldw	r7,-4(fp)
 84039ac:	01800284 	movi	r6,10
 84039b0:	e17ffe17 	ldw	r5,-8(fp)
 84039b4:	e13ffd17 	ldw	r4,-12(fp)
 84039b8:	84054f00 	call	84054f0 <vid_draw_circle>
}
 84039bc:	0001883a 	nop
 84039c0:	e037883a 	mov	sp,fp
 84039c4:	dfc00117 	ldw	ra,4(sp)
 84039c8:	df000017 	ldw	fp,0(sp)
 84039cc:	dec00204 	addi	sp,sp,8
 84039d0:	f800283a 	ret

084039d4 <ShowInfo>:
#include "simple_graphics.h"
#include "geometry.h"



void ShowInfo(alt_video_display *pDisplay, char *pText){
 84039d4:	defff904 	addi	sp,sp,-28
 84039d8:	dfc00615 	stw	ra,24(sp)
 84039dc:	df000515 	stw	fp,20(sp)
 84039e0:	df000504 	addi	fp,sp,20
 84039e4:	e13ffe15 	stw	r4,-8(fp)
 84039e8:	e17fff15 	stw	r5,-4(fp)
    vid_print_string_alpha(1, 1, WHITE_24, BLACK_24, tahomabold_20, pDisplay, pText);
 84039ec:	e0bfff17 	ldw	r2,-4(fp)
 84039f0:	d8800215 	stw	r2,8(sp)
 84039f4:	e0bffe17 	ldw	r2,-8(fp)
 84039f8:	d8800115 	stw	r2,4(sp)
 84039fc:	00821134 	movhi	r2,2116
 8403a00:	10952c04 	addi	r2,r2,21680
 8403a04:	d8800015 	stw	r2,0(sp)
 8403a08:	000f883a 	mov	r7,zero
 8403a0c:	01804034 	movhi	r6,256
 8403a10:	31bfffc4 	addi	r6,r6,-1
 8403a14:	01400044 	movi	r5,1
 8403a18:	01000044 	movi	r4,1
 8403a1c:	8406b580 	call	8406b58 <vid_print_string_alpha>
}
 8403a20:	0001883a 	nop
 8403a24:	e037883a 	mov	sp,fp
 8403a28:	dfc00117 	ldw	ra,4(sp)
 8403a2c:	df000017 	ldw	fp,0(sp)
 8403a30:	dec00204 	addi	sp,sp,8
 8403a34:	f800283a 	ret

08403a38 <VPG_XLine>:


void VPG_XLine(alt_video_display *pDisplay){
 8403a38:	defffe04 	addi	sp,sp,-8
 8403a3c:	df000115 	stw	fp,4(sp)
 8403a40:	df000104 	addi	fp,sp,4
 8403a44:	e13fff15 	stw	r4,-4(fp)
return ;
 8403a48:	0001883a 	nop

    // show text
    ShowInfo(pDisplay, "X Line");


}
 8403a4c:	e037883a 	mov	sp,fp
 8403a50:	df000017 	ldw	fp,0(sp)
 8403a54:	dec00104 	addi	sp,sp,4
 8403a58:	f800283a 	ret

08403a5c <VPG_ColorPanel>:


void VPG_ColorPanel(alt_video_display *pDisplay, alt_u32 Color){
 8403a5c:	defff204 	addi	sp,sp,-56
 8403a60:	dfc00d15 	stw	ra,52(sp)
 8403a64:	df000c15 	stw	fp,48(sp)
 8403a68:	df000c04 	addi	fp,sp,48
 8403a6c:	e13ffe15 	stw	r4,-8(fp)
 8403a70:	e17fff15 	stw	r5,-4(fp)
    int x, y;
    char szText[32];

    for(y=0;y<pDisplay->height;y++){
 8403a74:	e03ff515 	stw	zero,-44(fp)
 8403a78:	00001106 	br	8403ac0 <VPG_ColorPanel+0x64>
        for(x=0;x<pDisplay->width;x++){
 8403a7c:	e03ff415 	stw	zero,-48(fp)
 8403a80:	00000806 	br	8403aa4 <VPG_ColorPanel+0x48>
        	vid_set_pixel(x,y,Color, pDisplay);
 8403a84:	e1fffe17 	ldw	r7,-8(fp)
 8403a88:	e1bfff17 	ldw	r6,-4(fp)
 8403a8c:	e17ff517 	ldw	r5,-44(fp)
 8403a90:	e13ff417 	ldw	r4,-48(fp)
 8403a94:	8404ee80 	call	8404ee8 <vid_set_pixel>
void VPG_ColorPanel(alt_video_display *pDisplay, alt_u32 Color){
    int x, y;
    char szText[32];

    for(y=0;y<pDisplay->height;y++){
        for(x=0;x<pDisplay->width;x++){
 8403a98:	e0bff417 	ldw	r2,-48(fp)
 8403a9c:	10800044 	addi	r2,r2,1
 8403aa0:	e0bff415 	stw	r2,-48(fp)
 8403aa4:	e0bffe17 	ldw	r2,-8(fp)
 8403aa8:	10800117 	ldw	r2,4(r2)
 8403aac:	e0fff417 	ldw	r3,-48(fp)
 8403ab0:	18bff416 	blt	r3,r2,8403a84 <__alt_data_end+0xfc403a84>

void VPG_ColorPanel(alt_video_display *pDisplay, alt_u32 Color){
    int x, y;
    char szText[32];

    for(y=0;y<pDisplay->height;y++){
 8403ab4:	e0bff517 	ldw	r2,-44(fp)
 8403ab8:	10800044 	addi	r2,r2,1
 8403abc:	e0bff515 	stw	r2,-44(fp)
 8403ac0:	e0bffe17 	ldw	r2,-8(fp)
 8403ac4:	10800217 	ldw	r2,8(r2)
 8403ac8:	e0fff517 	ldw	r3,-44(fp)
 8403acc:	18bfeb16 	blt	r3,r2,8403a7c <__alt_data_end+0xfc403a7c>
        	vid_set_pixel(x,y,Color, pDisplay);
        }
    }

    // show text
    sprintf(szText,"Panel: %08xh", Color);
 8403ad0:	e0bff604 	addi	r2,fp,-40
 8403ad4:	e1bfff17 	ldw	r6,-4(fp)
 8403ad8:	01421134 	movhi	r5,2116
 8403adc:	29542d04 	addi	r5,r5,20660
 8403ae0:	1009883a 	mov	r4,r2
 8403ae4:	840c87c0 	call	840c87c <sprintf>
    ShowInfo(pDisplay, szText);
 8403ae8:	e0bff604 	addi	r2,fp,-40
 8403aec:	100b883a 	mov	r5,r2
 8403af0:	e13ffe17 	ldw	r4,-8(fp)
 8403af4:	84039d40 	call	84039d4 <ShowInfo>



}
 8403af8:	0001883a 	nop
 8403afc:	e037883a 	mov	sp,fp
 8403b00:	dfc00117 	ldw	ra,4(sp)
 8403b04:	df000017 	ldw	fp,0(sp)
 8403b08:	dec00204 	addi	sp,sp,8
 8403b0c:	f800283a 	ret

08403b10 <VPG_Grid>:

void VPG_Grid(alt_video_display *pDisplay, alt_u8 GridSize){
 8403b10:	defff104 	addi	sp,sp,-60
 8403b14:	dfc00e15 	stw	ra,56(sp)
 8403b18:	df000d15 	stw	fp,52(sp)
 8403b1c:	df000d04 	addi	fp,sp,52
 8403b20:	e13ffe15 	stw	r4,-8(fp)
 8403b24:	2805883a 	mov	r2,r5
 8403b28:	e0bfff05 	stb	r2,-4(fp)
    int x,y;
    alt_u32 Value32;
    char szText[32];


    for(y=0;y<pDisplay->height;y++){
 8403b2c:	e03ff415 	stw	zero,-48(fp)
 8403b30:	00002206 	br	8403bbc <VPG_Grid+0xac>
        for(x=0;x<pDisplay->width;x++){
 8403b34:	e03ff315 	stw	zero,-52(fp)
 8403b38:	00001906 	br	8403ba0 <VPG_Grid+0x90>
            if (x%GridSize == 0 || y%GridSize == 0)
 8403b3c:	e0ffff03 	ldbu	r3,-4(fp)
 8403b40:	e0bff317 	ldw	r2,-52(fp)
 8403b44:	180b883a 	mov	r5,r3
 8403b48:	1009883a 	mov	r4,r2
 8403b4c:	84084b40 	call	84084b4 <__modsi3>
 8403b50:	10000626 	beq	r2,zero,8403b6c <VPG_Grid+0x5c>
 8403b54:	e0ffff03 	ldbu	r3,-4(fp)
 8403b58:	e0bff417 	ldw	r2,-48(fp)
 8403b5c:	180b883a 	mov	r5,r3
 8403b60:	1009883a 	mov	r4,r2
 8403b64:	84084b40 	call	84084b4 <__modsi3>
 8403b68:	1000041e 	bne	r2,zero,8403b7c <VPG_Grid+0x6c>
                Value32 = WHITE_24;
 8403b6c:	00804034 	movhi	r2,256
 8403b70:	10bfffc4 	addi	r2,r2,-1
 8403b74:	e0bff515 	stw	r2,-44(fp)
 8403b78:	00000106 	br	8403b80 <VPG_Grid+0x70>
            else
                Value32 = BLACK_24;
 8403b7c:	e03ff515 	stw	zero,-44(fp)
            vid_set_pixel(x,y,Value32, pDisplay);
 8403b80:	e1fffe17 	ldw	r7,-8(fp)
 8403b84:	e1bff517 	ldw	r6,-44(fp)
 8403b88:	e17ff417 	ldw	r5,-48(fp)
 8403b8c:	e13ff317 	ldw	r4,-52(fp)
 8403b90:	8404ee80 	call	8404ee8 <vid_set_pixel>
    alt_u32 Value32;
    char szText[32];


    for(y=0;y<pDisplay->height;y++){
        for(x=0;x<pDisplay->width;x++){
 8403b94:	e0bff317 	ldw	r2,-52(fp)
 8403b98:	10800044 	addi	r2,r2,1
 8403b9c:	e0bff315 	stw	r2,-52(fp)
 8403ba0:	e0bffe17 	ldw	r2,-8(fp)
 8403ba4:	10800117 	ldw	r2,4(r2)
 8403ba8:	e0fff317 	ldw	r3,-52(fp)
 8403bac:	18bfe316 	blt	r3,r2,8403b3c <__alt_data_end+0xfc403b3c>
    int x,y;
    alt_u32 Value32;
    char szText[32];


    for(y=0;y<pDisplay->height;y++){
 8403bb0:	e0bff417 	ldw	r2,-48(fp)
 8403bb4:	10800044 	addi	r2,r2,1
 8403bb8:	e0bff415 	stw	r2,-48(fp)
 8403bbc:	e0bffe17 	ldw	r2,-8(fp)
 8403bc0:	10800217 	ldw	r2,8(r2)
 8403bc4:	e0fff417 	ldw	r3,-48(fp)
 8403bc8:	18bfda16 	blt	r3,r2,8403b34 <__alt_data_end+0xfc403b34>
            vid_set_pixel(x,y,Value32, pDisplay);
        }

    }
    // show text
    sprintf(szText,"Grid%d", GridSize);
 8403bcc:	e0ffff03 	ldbu	r3,-4(fp)
 8403bd0:	e0bff604 	addi	r2,fp,-40
 8403bd4:	180d883a 	mov	r6,r3
 8403bd8:	01421134 	movhi	r5,2116
 8403bdc:	29543104 	addi	r5,r5,20676
 8403be0:	1009883a 	mov	r4,r2
 8403be4:	840c87c0 	call	840c87c <sprintf>
    ShowInfo(pDisplay, szText);
 8403be8:	e0bff604 	addi	r2,fp,-40
 8403bec:	100b883a 	mov	r5,r2
 8403bf0:	e13ffe17 	ldw	r4,-8(fp)
 8403bf4:	84039d40 	call	84039d4 <ShowInfo>

}
 8403bf8:	0001883a 	nop
 8403bfc:	e037883a 	mov	sp,fp
 8403c00:	dfc00117 	ldw	ra,4(sp)
 8403c04:	df000017 	ldw	fp,0(sp)
 8403c08:	dec00204 	addi	sp,sp,8
 8403c0c:	f800283a 	ret

08403c10 <VPG_VGrid>:

void VPG_VGrid(alt_video_display *pDisplay, alt_u8 GridSize){
 8403c10:	defff104 	addi	sp,sp,-60
 8403c14:	dfc00e15 	stw	ra,56(sp)
 8403c18:	df000d15 	stw	fp,52(sp)
 8403c1c:	df000d04 	addi	fp,sp,52
 8403c20:	e13ffe15 	stw	r4,-8(fp)
 8403c24:	2805883a 	mov	r2,r5
 8403c28:	e0bfff05 	stb	r2,-4(fp)
    int x,y;
    alt_u32 Value32;
    char szText[32];


    for(y=0;y<pDisplay->height;y++){
 8403c2c:	e03ff415 	stw	zero,-48(fp)
 8403c30:	00001c06 	br	8403ca4 <VPG_VGrid+0x94>
        for(x=0;x<pDisplay->width;x++){
 8403c34:	e03ff315 	stw	zero,-52(fp)
 8403c38:	00001306 	br	8403c88 <VPG_VGrid+0x78>
            if (x%GridSize == 0)
 8403c3c:	e0ffff03 	ldbu	r3,-4(fp)
 8403c40:	e0bff317 	ldw	r2,-52(fp)
 8403c44:	180b883a 	mov	r5,r3
 8403c48:	1009883a 	mov	r4,r2
 8403c4c:	84084b40 	call	84084b4 <__modsi3>
 8403c50:	1000041e 	bne	r2,zero,8403c64 <VPG_VGrid+0x54>
                Value32 = WHITE_24;
 8403c54:	00804034 	movhi	r2,256
 8403c58:	10bfffc4 	addi	r2,r2,-1
 8403c5c:	e0bff515 	stw	r2,-44(fp)
 8403c60:	00000106 	br	8403c68 <VPG_VGrid+0x58>
            else
                Value32 = BLACK_24;
 8403c64:	e03ff515 	stw	zero,-44(fp)
            vid_set_pixel(x,y,Value32, pDisplay);
 8403c68:	e1fffe17 	ldw	r7,-8(fp)
 8403c6c:	e1bff517 	ldw	r6,-44(fp)
 8403c70:	e17ff417 	ldw	r5,-48(fp)
 8403c74:	e13ff317 	ldw	r4,-52(fp)
 8403c78:	8404ee80 	call	8404ee8 <vid_set_pixel>
    alt_u32 Value32;
    char szText[32];


    for(y=0;y<pDisplay->height;y++){
        for(x=0;x<pDisplay->width;x++){
 8403c7c:	e0bff317 	ldw	r2,-52(fp)
 8403c80:	10800044 	addi	r2,r2,1
 8403c84:	e0bff315 	stw	r2,-52(fp)
 8403c88:	e0bffe17 	ldw	r2,-8(fp)
 8403c8c:	10800117 	ldw	r2,4(r2)
 8403c90:	e0fff317 	ldw	r3,-52(fp)
 8403c94:	18bfe916 	blt	r3,r2,8403c3c <__alt_data_end+0xfc403c3c>
    int x,y;
    alt_u32 Value32;
    char szText[32];


    for(y=0;y<pDisplay->height;y++){
 8403c98:	e0bff417 	ldw	r2,-48(fp)
 8403c9c:	10800044 	addi	r2,r2,1
 8403ca0:	e0bff415 	stw	r2,-48(fp)
 8403ca4:	e0bffe17 	ldw	r2,-8(fp)
 8403ca8:	10800217 	ldw	r2,8(r2)
 8403cac:	e0fff417 	ldw	r3,-48(fp)
 8403cb0:	18bfe016 	blt	r3,r2,8403c34 <__alt_data_end+0xfc403c34>
            vid_set_pixel(x,y,Value32, pDisplay);
        }

    }
    // show text
    sprintf(szText,"VGrid%d", GridSize);
 8403cb4:	e0ffff03 	ldbu	r3,-4(fp)
 8403cb8:	e0bff604 	addi	r2,fp,-40
 8403cbc:	180d883a 	mov	r6,r3
 8403cc0:	01421134 	movhi	r5,2116
 8403cc4:	29543304 	addi	r5,r5,20684
 8403cc8:	1009883a 	mov	r4,r2
 8403ccc:	840c87c0 	call	840c87c <sprintf>
    ShowInfo(pDisplay, szText);
 8403cd0:	e0bff604 	addi	r2,fp,-40
 8403cd4:	100b883a 	mov	r5,r2
 8403cd8:	e13ffe17 	ldw	r4,-8(fp)
 8403cdc:	84039d40 	call	84039d4 <ShowInfo>

}
 8403ce0:	0001883a 	nop
 8403ce4:	e037883a 	mov	sp,fp
 8403ce8:	dfc00117 	ldw	ra,4(sp)
 8403cec:	df000017 	ldw	fp,0(sp)
 8403cf0:	dec00204 	addi	sp,sp,8
 8403cf4:	f800283a 	ret

08403cf8 <VPG_HGrid>:

void VPG_HGrid(alt_video_display *pDisplay, alt_u8 GridSize){
 8403cf8:	defff104 	addi	sp,sp,-60
 8403cfc:	dfc00e15 	stw	ra,56(sp)
 8403d00:	df000d15 	stw	fp,52(sp)
 8403d04:	df000d04 	addi	fp,sp,52
 8403d08:	e13ffe15 	stw	r4,-8(fp)
 8403d0c:	2805883a 	mov	r2,r5
 8403d10:	e0bfff05 	stb	r2,-4(fp)
    int x,y;
    alt_u32 Value32;
    char szText[32];

    for(y=0;y<pDisplay->height;y++){
 8403d14:	e03ff415 	stw	zero,-48(fp)
 8403d18:	00001c06 	br	8403d8c <VPG_HGrid+0x94>
        for(x=0;x<pDisplay->width;x++){
 8403d1c:	e03ff315 	stw	zero,-52(fp)
 8403d20:	00001306 	br	8403d70 <VPG_HGrid+0x78>
            if (y%GridSize == 0)
 8403d24:	e0ffff03 	ldbu	r3,-4(fp)
 8403d28:	e0bff417 	ldw	r2,-48(fp)
 8403d2c:	180b883a 	mov	r5,r3
 8403d30:	1009883a 	mov	r4,r2
 8403d34:	84084b40 	call	84084b4 <__modsi3>
 8403d38:	1000041e 	bne	r2,zero,8403d4c <VPG_HGrid+0x54>
                Value32 = WHITE_24;
 8403d3c:	00804034 	movhi	r2,256
 8403d40:	10bfffc4 	addi	r2,r2,-1
 8403d44:	e0bff515 	stw	r2,-44(fp)
 8403d48:	00000106 	br	8403d50 <VPG_HGrid+0x58>
            else
                Value32 = BLACK_24;
 8403d4c:	e03ff515 	stw	zero,-44(fp)
            vid_set_pixel(x,y,Value32, pDisplay);
 8403d50:	e1fffe17 	ldw	r7,-8(fp)
 8403d54:	e1bff517 	ldw	r6,-44(fp)
 8403d58:	e17ff417 	ldw	r5,-48(fp)
 8403d5c:	e13ff317 	ldw	r4,-52(fp)
 8403d60:	8404ee80 	call	8404ee8 <vid_set_pixel>
    int x,y;
    alt_u32 Value32;
    char szText[32];

    for(y=0;y<pDisplay->height;y++){
        for(x=0;x<pDisplay->width;x++){
 8403d64:	e0bff317 	ldw	r2,-52(fp)
 8403d68:	10800044 	addi	r2,r2,1
 8403d6c:	e0bff315 	stw	r2,-52(fp)
 8403d70:	e0bffe17 	ldw	r2,-8(fp)
 8403d74:	10800117 	ldw	r2,4(r2)
 8403d78:	e0fff317 	ldw	r3,-52(fp)
 8403d7c:	18bfe916 	blt	r3,r2,8403d24 <__alt_data_end+0xfc403d24>
void VPG_HGrid(alt_video_display *pDisplay, alt_u8 GridSize){
    int x,y;
    alt_u32 Value32;
    char szText[32];

    for(y=0;y<pDisplay->height;y++){
 8403d80:	e0bff417 	ldw	r2,-48(fp)
 8403d84:	10800044 	addi	r2,r2,1
 8403d88:	e0bff415 	stw	r2,-48(fp)
 8403d8c:	e0bffe17 	ldw	r2,-8(fp)
 8403d90:	10800217 	ldw	r2,8(r2)
 8403d94:	e0fff417 	ldw	r3,-48(fp)
 8403d98:	18bfe016 	blt	r3,r2,8403d1c <__alt_data_end+0xfc403d1c>
            vid_set_pixel(x,y,Value32, pDisplay);
        }

    }
    // show text
    sprintf(szText,"HGrid%d", GridSize);
 8403d9c:	e0ffff03 	ldbu	r3,-4(fp)
 8403da0:	e0bff604 	addi	r2,fp,-40
 8403da4:	180d883a 	mov	r6,r3
 8403da8:	01421134 	movhi	r5,2116
 8403dac:	29543504 	addi	r5,r5,20692
 8403db0:	1009883a 	mov	r4,r2
 8403db4:	840c87c0 	call	840c87c <sprintf>
    ShowInfo(pDisplay, szText);
 8403db8:	e0bff604 	addi	r2,fp,-40
 8403dbc:	100b883a 	mov	r5,r2
 8403dc0:	e13ffe17 	ldw	r4,-8(fp)
 8403dc4:	84039d40 	call	84039d4 <ShowInfo>

}
 8403dc8:	0001883a 	nop
 8403dcc:	e037883a 	mov	sp,fp
 8403dd0:	dfc00117 	ldw	ra,4(sp)
 8403dd4:	df000017 	ldw	fp,0(sp)
 8403dd8:	dec00204 	addi	sp,sp,8
 8403ddc:	f800283a 	ret

08403de0 <VPG_ColorBar>:




void VPG_ColorBar(alt_video_display *pDisplay){
 8403de0:	defffa04 	addi	sp,sp,-24
 8403de4:	dfc00515 	stw	ra,20(sp)
 8403de8:	df000415 	stw	fp,16(sp)
 8403dec:	df000404 	addi	fp,sp,16
 8403df0:	e13fff15 	stw	r4,-4(fp)
    int x,y;
    alt_u32 Value32;

    for(y=0;y<pDisplay->height;y++){
 8403df4:	e03ffd15 	stw	zero,-12(fp)
 8403df8:	00005c06 	br	8403f6c <VPG_ColorBar+0x18c>
        for(x=0;x<pDisplay->width;x++){
 8403dfc:	e03ffc15 	stw	zero,-16(fp)
 8403e00:	00005306 	br	8403f50 <VPG_ColorBar+0x170>
            if (x == 0 || y == 0 || x == pDisplay->width-1 || y == pDisplay->height-1){
 8403e04:	e0bffc17 	ldw	r2,-16(fp)
 8403e08:	10000c26 	beq	r2,zero,8403e3c <VPG_ColorBar+0x5c>
 8403e0c:	e0bffd17 	ldw	r2,-12(fp)
 8403e10:	10000a26 	beq	r2,zero,8403e3c <VPG_ColorBar+0x5c>
 8403e14:	e0bfff17 	ldw	r2,-4(fp)
 8403e18:	10800117 	ldw	r2,4(r2)
 8403e1c:	10ffffc4 	addi	r3,r2,-1
 8403e20:	e0bffc17 	ldw	r2,-16(fp)
 8403e24:	18800526 	beq	r3,r2,8403e3c <VPG_ColorBar+0x5c>
 8403e28:	e0bfff17 	ldw	r2,-4(fp)
 8403e2c:	10800217 	ldw	r2,8(r2)
 8403e30:	10ffffc4 	addi	r3,r2,-1
 8403e34:	e0bffd17 	ldw	r2,-12(fp)
 8403e38:	1880041e 	bne	r3,r2,8403e4c <VPG_ColorBar+0x6c>
                Value32 = WHITE_24;
 8403e3c:	00804034 	movhi	r2,256
 8403e40:	10bfffc4 	addi	r2,r2,-1
 8403e44:	e0bffe15 	stw	r2,-8(fp)
 8403e48:	00003906 	br	8403f30 <VPG_ColorBar+0x150>
            }else if (y < pDisplay->height/4){
 8403e4c:	e0bfff17 	ldw	r2,-4(fp)
 8403e50:	10800217 	ldw	r2,8(r2)
 8403e54:	1000010e 	bge	r2,zero,8403e5c <VPG_ColorBar+0x7c>
 8403e58:	108000c4 	addi	r2,r2,3
 8403e5c:	1005d0ba 	srai	r2,r2,2
 8403e60:	1007883a 	mov	r3,r2
 8403e64:	e0bffd17 	ldw	r2,-12(fp)
 8403e68:	10c0040e 	bge	r2,r3,8403e7c <VPG_ColorBar+0x9c>
                // red
                Value32 = x & 0xFF;
 8403e6c:	e0bffc17 	ldw	r2,-16(fp)
 8403e70:	10803fcc 	andi	r2,r2,255
 8403e74:	e0bffe15 	stw	r2,-8(fp)
 8403e78:	00002d06 	br	8403f30 <VPG_ColorBar+0x150>
            }else if (y < pDisplay->height/2){
 8403e7c:	e0bfff17 	ldw	r2,-4(fp)
 8403e80:	10800217 	ldw	r2,8(r2)
 8403e84:	1006d7fa 	srli	r3,r2,31
 8403e88:	1885883a 	add	r2,r3,r2
 8403e8c:	1005d07a 	srai	r2,r2,1
 8403e90:	1007883a 	mov	r3,r2
 8403e94:	e0bffd17 	ldw	r2,-12(fp)
 8403e98:	10c0050e 	bge	r2,r3,8403eb0 <VPG_ColorBar+0xd0>
                Value32 = (x & 0xFF) << 8;
 8403e9c:	e0bffc17 	ldw	r2,-16(fp)
 8403ea0:	1004923a 	slli	r2,r2,8
 8403ea4:	10bfffcc 	andi	r2,r2,65535
 8403ea8:	e0bffe15 	stw	r2,-8(fp)
 8403eac:	00002006 	br	8403f30 <VPG_ColorBar+0x150>
            }else if (y < pDisplay->height*3/4){
 8403eb0:	e0bfff17 	ldw	r2,-4(fp)
 8403eb4:	10c00217 	ldw	r3,8(r2)
 8403eb8:	1805883a 	mov	r2,r3
 8403ebc:	1085883a 	add	r2,r2,r2
 8403ec0:	10c5883a 	add	r2,r2,r3
 8403ec4:	1000010e 	bge	r2,zero,8403ecc <VPG_ColorBar+0xec>
 8403ec8:	108000c4 	addi	r2,r2,3
 8403ecc:	1005d0ba 	srai	r2,r2,2
 8403ed0:	1007883a 	mov	r3,r2
 8403ed4:	e0bffd17 	ldw	r2,-12(fp)
 8403ed8:	10c0050e 	bge	r2,r3,8403ef0 <VPG_ColorBar+0x110>
                Value32 = (x & 0xFF) << 16;
 8403edc:	e0bffc17 	ldw	r2,-16(fp)
 8403ee0:	10803fcc 	andi	r2,r2,255
 8403ee4:	1004943a 	slli	r2,r2,16
 8403ee8:	e0bffe15 	stw	r2,-8(fp)
 8403eec:	00001006 	br	8403f30 <VPG_ColorBar+0x150>
            }else{
                Value32 = x & 0xFF;
 8403ef0:	e0bffc17 	ldw	r2,-16(fp)
 8403ef4:	10803fcc 	andi	r2,r2,255
 8403ef8:	e0bffe15 	stw	r2,-8(fp)
                Value32 |= (x & 0xFF) << 8;
 8403efc:	e0bffc17 	ldw	r2,-16(fp)
 8403f00:	1004923a 	slli	r2,r2,8
 8403f04:	10bfffcc 	andi	r2,r2,65535
 8403f08:	e0fffe17 	ldw	r3,-8(fp)
 8403f0c:	1884b03a 	or	r2,r3,r2
 8403f10:	e0bffe15 	stw	r2,-8(fp)
                Value32 |= (x & 0xFF) << 16;
 8403f14:	e0bffc17 	ldw	r2,-16(fp)
 8403f18:	10803fcc 	andi	r2,r2,255
 8403f1c:	1004943a 	slli	r2,r2,16
 8403f20:	1007883a 	mov	r3,r2
 8403f24:	e0bffe17 	ldw	r2,-8(fp)
 8403f28:	10c4b03a 	or	r2,r2,r3
 8403f2c:	e0bffe15 	stw	r2,-8(fp)
            }
            vid_set_pixel(x,y,Value32, pDisplay);
 8403f30:	e1ffff17 	ldw	r7,-4(fp)
 8403f34:	e1bffe17 	ldw	r6,-8(fp)
 8403f38:	e17ffd17 	ldw	r5,-12(fp)
 8403f3c:	e13ffc17 	ldw	r4,-16(fp)
 8403f40:	8404ee80 	call	8404ee8 <vid_set_pixel>
void VPG_ColorBar(alt_video_display *pDisplay){
    int x,y;
    alt_u32 Value32;

    for(y=0;y<pDisplay->height;y++){
        for(x=0;x<pDisplay->width;x++){
 8403f44:	e0bffc17 	ldw	r2,-16(fp)
 8403f48:	10800044 	addi	r2,r2,1
 8403f4c:	e0bffc15 	stw	r2,-16(fp)
 8403f50:	e0bfff17 	ldw	r2,-4(fp)
 8403f54:	10800117 	ldw	r2,4(r2)
 8403f58:	e0fffc17 	ldw	r3,-16(fp)
 8403f5c:	18bfa916 	blt	r3,r2,8403e04 <__alt_data_end+0xfc403e04>

void VPG_ColorBar(alt_video_display *pDisplay){
    int x,y;
    alt_u32 Value32;

    for(y=0;y<pDisplay->height;y++){
 8403f60:	e0bffd17 	ldw	r2,-12(fp)
 8403f64:	10800044 	addi	r2,r2,1
 8403f68:	e0bffd15 	stw	r2,-12(fp)
 8403f6c:	e0bfff17 	ldw	r2,-4(fp)
 8403f70:	10800217 	ldw	r2,8(r2)
 8403f74:	e0fffd17 	ldw	r3,-12(fp)
 8403f78:	18bfa016 	blt	r3,r2,8403dfc <__alt_data_end+0xfc403dfc>

        }

    }

}
 8403f7c:	0001883a 	nop
 8403f80:	e037883a 	mov	sp,fp
 8403f84:	dfc00117 	ldw	ra,4(sp)
 8403f88:	df000017 	ldw	fp,0(sp)
 8403f8c:	dec00204 	addi	sp,sp,8
 8403f90:	f800283a 	ret

08403f94 <GUI_ShowPAT>:


void GUI_ShowPAT(alt_video_display *pDisplay, int PatId){
 8403f94:	defffc04 	addi	sp,sp,-16
 8403f98:	dfc00315 	stw	ra,12(sp)
 8403f9c:	df000215 	stw	fp,8(sp)
 8403fa0:	df000204 	addi	fp,sp,8
 8403fa4:	e13ffe15 	stw	r4,-8(fp)
 8403fa8:	e17fff15 	stw	r5,-4(fp)

                switch(PatId){
 8403fac:	e0bfff17 	ldw	r2,-4(fp)
 8403fb0:	108003e8 	cmpgeui	r2,r2,15
 8403fb4:	1000511e 	bne	r2,zero,84040fc <GUI_ShowPAT+0x168>
 8403fb8:	e0bfff17 	ldw	r2,-4(fp)
 8403fbc:	100690ba 	slli	r3,r2,2
 8403fc0:	00821034 	movhi	r2,2112
 8403fc4:	108ff504 	addi	r2,r2,16340
 8403fc8:	1885883a 	add	r2,r3,r2
 8403fcc:	10800017 	ldw	r2,0(r2)
 8403fd0:	1000683a 	jmp	r2
 8403fd4:	08404010 	cmplti	at,at,256
 8403fd8:	0840401c 	xori	at,at,256
 8403fdc:	08404030 	cmpltui	at,at,256
 8403fe0:	08404040 	call	840404 <__alt_mem_sdram-0x77bfbfc>
 8403fe4:	08404050 	cmplti	at,at,257
 8403fe8:	08404060 	cmpeqi	at,at,257
 8403fec:	0840406c 	andhi	at,at,257
 8403ff0:	0840407c 	xorhi	at,at,257
 8403ff4:	0840408c 	andi	at,at,258
 8403ff8:	0840409c 	xori	at,at,258
 8403ffc:	084040ac 	andhi	at,at,258
 8404000:	084040bc 	xorhi	at,at,258
 8404004:	084040cc 	andi	at,at,259
 8404008:	084040dc 	xori	at,at,259
 840400c:	084040ec 	andhi	at,at,259
                    case 0: VPG_ColorBar(pDisplay); break;
 8404010:	e13ffe17 	ldw	r4,-8(fp)
 8404014:	8403de00 	call	8403de0 <VPG_ColorBar>
 8404018:	00003806 	br	84040fc <GUI_ShowPAT+0x168>
                    case 1: VPG_ColorPanel(pDisplay, WHITE_24); break;
 840401c:	01404034 	movhi	r5,256
 8404020:	297fffc4 	addi	r5,r5,-1
 8404024:	e13ffe17 	ldw	r4,-8(fp)
 8404028:	8403a5c0 	call	8403a5c <VPG_ColorPanel>
 840402c:	00003306 	br	84040fc <GUI_ShowPAT+0x168>
                    case 2: VPG_ColorPanel(pDisplay, RED_24); break;
 8404030:	01403ff4 	movhi	r5,255
 8404034:	e13ffe17 	ldw	r4,-8(fp)
 8404038:	8403a5c0 	call	8403a5c <VPG_ColorPanel>
 840403c:	00002f06 	br	84040fc <GUI_ShowPAT+0x168>
                    case 3: VPG_ColorPanel(pDisplay, GREEN_24); break;
 8404040:	01600014 	movui	r5,32768
 8404044:	e13ffe17 	ldw	r4,-8(fp)
 8404048:	8403a5c0 	call	8403a5c <VPG_ColorPanel>
 840404c:	00002b06 	br	84040fc <GUI_ShowPAT+0x168>
                    case 4: VPG_ColorPanel(pDisplay, BLUE_24); break;
 8404050:	01403fc4 	movi	r5,255
 8404054:	e13ffe17 	ldw	r4,-8(fp)
 8404058:	8403a5c0 	call	8403a5c <VPG_ColorPanel>
 840405c:	00002706 	br	84040fc <GUI_ShowPAT+0x168>
                    case 5: VPG_XLine(pDisplay); break;
 8404060:	e13ffe17 	ldw	r4,-8(fp)
 8404064:	8403a380 	call	8403a38 <VPG_XLine>
 8404068:	00002406 	br	84040fc <GUI_ShowPAT+0x168>
                    case 6: VPG_VGrid(pDisplay, 2); break;
 840406c:	01400084 	movi	r5,2
 8404070:	e13ffe17 	ldw	r4,-8(fp)
 8404074:	8403c100 	call	8403c10 <VPG_VGrid>
 8404078:	00002006 	br	84040fc <GUI_ShowPAT+0x168>
                    case 7: VPG_VGrid(pDisplay, 4); break;
 840407c:	01400104 	movi	r5,4
 8404080:	e13ffe17 	ldw	r4,-8(fp)
 8404084:	8403c100 	call	8403c10 <VPG_VGrid>
 8404088:	00001c06 	br	84040fc <GUI_ShowPAT+0x168>
                    case 8: VPG_VGrid(pDisplay, 8); break;
 840408c:	01400204 	movi	r5,8
 8404090:	e13ffe17 	ldw	r4,-8(fp)
 8404094:	8403c100 	call	8403c10 <VPG_VGrid>
 8404098:	00001806 	br	84040fc <GUI_ShowPAT+0x168>
                    case 9: VPG_HGrid(pDisplay, 2); break;
 840409c:	01400084 	movi	r5,2
 84040a0:	e13ffe17 	ldw	r4,-8(fp)
 84040a4:	8403cf80 	call	8403cf8 <VPG_HGrid>
 84040a8:	00001406 	br	84040fc <GUI_ShowPAT+0x168>
                    case 10: VPG_HGrid(pDisplay, 4); break;
 84040ac:	01400104 	movi	r5,4
 84040b0:	e13ffe17 	ldw	r4,-8(fp)
 84040b4:	8403cf80 	call	8403cf8 <VPG_HGrid>
 84040b8:	00001006 	br	84040fc <GUI_ShowPAT+0x168>
                    case 11: VPG_HGrid(pDisplay, 8); break;
 84040bc:	01400204 	movi	r5,8
 84040c0:	e13ffe17 	ldw	r4,-8(fp)
 84040c4:	8403cf80 	call	8403cf8 <VPG_HGrid>
 84040c8:	00000c06 	br	84040fc <GUI_ShowPAT+0x168>
                    case 12: VPG_Grid(pDisplay, 2); break;
 84040cc:	01400084 	movi	r5,2
 84040d0:	e13ffe17 	ldw	r4,-8(fp)
 84040d4:	8403b100 	call	8403b10 <VPG_Grid>
 84040d8:	00000806 	br	84040fc <GUI_ShowPAT+0x168>
                    case 13: VPG_Grid(pDisplay, 4); break;
 84040dc:	01400104 	movi	r5,4
 84040e0:	e13ffe17 	ldw	r4,-8(fp)
 84040e4:	8403b100 	call	8403b10 <VPG_Grid>
 84040e8:	00000406 	br	84040fc <GUI_ShowPAT+0x168>
                    case 14: VPG_Grid(pDisplay, 8); break;
 84040ec:	01400204 	movi	r5,8
 84040f0:	e13ffe17 	ldw	r4,-8(fp)
 84040f4:	8403b100 	call	8403b10 <VPG_Grid>
 84040f8:	0001883a 	nop
                }

}
 84040fc:	0001883a 	nop
 8404100:	e037883a 	mov	sp,fp
 8404104:	dfc00117 	ldw	ra,4(sp)
 8404108:	df000017 	ldw	fp,0(sp)
 840410c:	dec00204 	addi	sp,sp,8
 8404110:	f800283a 	ret

08404114 <GUI_VPG>:

void GUI_VPG(alt_video_display *pDisplay, TOUCH_HANDLE *pTouch){
 8404114:	defff904 	addi	sp,sp,-28
 8404118:	dfc00615 	stw	ra,24(sp)
 840411c:	df000515 	stw	fp,20(sp)
 8404120:	df000504 	addi	fp,sp,20
 8404124:	e13ffe15 	stw	r4,-8(fp)
 8404128:	e17fff15 	stw	r5,-4(fp)
	int X, Y;
	int PatId = 0;
 840412c:	e03ffb15 	stw	zero,-20(fp)

    // clean screen
    vid_clean_screen(pDisplay, BLACK_24);
 8404130:	000b883a 	mov	r5,zero
 8404134:	e13ffe17 	ldw	r4,-8(fp)
 8404138:	840445c0 	call	840445c <vid_clean_screen>


    VPG_ColorBar(pDisplay);
 840413c:	e13ffe17 	ldw	r4,-8(fp)
 8404140:	8403de00 	call	8403de0 <VPG_ColorBar>

    GUI_ShowPAT(pDisplay, PatId);
 8404144:	e17ffb17 	ldw	r5,-20(fp)
 8404148:	e13ffe17 	ldw	r4,-8(fp)
 840414c:	8403f940 	call	8403f94 <GUI_ShowPAT>

    while(1){
        if (Touch_GetXY(pTouch, &X, &Y)){
 8404150:	e0fffd04 	addi	r3,fp,-12
 8404154:	e0bffc04 	addi	r2,fp,-16
 8404158:	180d883a 	mov	r6,r3
 840415c:	100b883a 	mov	r5,r2
 8404160:	e13fff17 	ldw	r4,-4(fp)
 8404164:	84077b80 	call	84077b8 <Touch_GetXY>
 8404168:	103ff926 	beq	r2,zero,8404150 <__alt_data_end+0xfc404150>
            //printf(".");

            // change pattern
            PatId++;
 840416c:	e0bffb17 	ldw	r2,-20(fp)
 8404170:	10800044 	addi	r2,r2,1
 8404174:	e0bffb15 	stw	r2,-20(fp)
            if (PatId > 14)
 8404178:	e0bffb17 	ldw	r2,-20(fp)
 840417c:	108003d0 	cmplti	r2,r2,15
 8404180:	1000011e 	bne	r2,zero,8404188 <GUI_VPG+0x74>
                PatId = 0;
 8404184:	e03ffb15 	stw	zero,-20(fp)

            printf("PatId=%d\r\n", PatId);
 8404188:	e17ffb17 	ldw	r5,-20(fp)
 840418c:	01021134 	movhi	r4,2116
 8404190:	21143704 	addi	r4,r4,20700
 8404194:	840c4d00 	call	840c4d0 <printf>
            GUI_ShowPAT(pDisplay, PatId);
 8404198:	e17ffb17 	ldw	r5,-20(fp)
 840419c:	e13ffe17 	ldw	r4,-8(fp)
 84041a0:	8403f940 	call	8403f94 <GUI_ShowPAT>
            usleep(300*1000); // debounce
